ARM GAS  C:\Users\cnpan\AppData\Local\Temp\ccpThEhj.s 			page 1


   1              		.syntax unified
   2              		.cpu cortex-m0
   3              		.fpu softvfp
   4              		.eabi_attribute 20, 1
   5              		.eabi_attribute 21, 1
   6              		.eabi_attribute 23, 3
   7              		.eabi_attribute 24, 1
   8              		.eabi_attribute 25, 1
   9              		.eabi_attribute 26, 1
  10              		.eabi_attribute 30, 6
  11              		.eabi_attribute 34, 0
  12              		.eabi_attribute 18, 4
  13              		.thumb
  14              		.syntax unified
  15              		.file	"BLE.c"
  16              		.text
  17              	.Ltext0:
  18              		.cfi_sections	.debug_frame
  19              		.global	cyBle_initVar
  20              		.bss
  21              		.type	cyBle_initVar, %object
  22              		.size	cyBle_initVar, 1
  23              	cyBle_initVar:
  24 0000 00       		.space	1
  25              		.global	cyBle_stackMemoryRam
  26              		.section	.noinit,"aw",%progbits
  27              		.align	3
  28              		.type	cyBle_stackMemoryRam, %object
  29              		.size	cyBle_stackMemoryRam, 2784
  30              	cyBle_stackMemoryRam:
  31 0000 00000000 		.space	2784
  31      00000000 
  31      00000000 
  31      00000000 
  31      00000000 
  32              		.comm	cyBle_connectionParameters,26,4
  33              		.comm	cyBle_connectingTimeout,2,2
  34              		.global	cyBle_discoveryInfo
  35              		.data
  36              		.align	2
  37              		.type	cyBle_discoveryInfo, %object
  38              		.size	cyBle_discoveryInfo, 12
  39              	cyBle_discoveryInfo:
  40 0000 02       		.byte	2
  41 0001 01       		.byte	1
  42 0002 5000     		.short	80
  43 0004 0800     		.short	8
  44 0006 00       		.byte	0
  45 0007 00       		.byte	0
  46 0008 0000     		.short	0
  47 000a 01       		.byte	1
  48 000b 00       		.space	1
  49              		.comm	CyBle_ApplCallback,4,4
  50              		.global	cyBle_deviceAddress
  51              		.align	2
  52              		.type	cyBle_deviceAddress, %object
  53              		.size	cyBle_deviceAddress, 7
ARM GAS  C:\Users\cnpan\AppData\Local\Temp\ccpThEhj.s 			page 2


  54              	cyBle_deviceAddress:
  55 000c 25       		.byte	37
  56 000d 43       		.byte	67
  57 000e 65       		.byte	101
  58 000f 50       		.byte	80
  59 0010 A0       		.byte	-96
  60 0011 00       		.byte	0
  61 0012 00       		.byte	0
  62              		.global	cyBle_sflashDeviceAddress
  63 0013 00       		.align	2
  64              		.type	cyBle_sflashDeviceAddress, %object
  65              		.size	cyBle_sflashDeviceAddress, 4
  66              	cyBle_sflashDeviceAddress:
  67 0014 00F2FF0F 		.word	268431872
  68              		.section	.text.CyBle_Init,"ax",%progbits
  69              		.align	2
  70              		.global	CyBle_Init
  71              		.code	16
  72              		.thumb_func
  73              		.type	CyBle_Init, %function
  74              	CyBle_Init:
  75              	.LFB2:
  76              		.file 1 "Generated_Source\\PSoC4\\BLE.c"
   1:Generated_Source\PSoC4/BLE.c **** /***************************************************************************//**
   2:Generated_Source\PSoC4/BLE.c **** * \file CYBLE.c
   3:Generated_Source\PSoC4/BLE.c **** * \version 3.30
   4:Generated_Source\PSoC4/BLE.c **** * 
   5:Generated_Source\PSoC4/BLE.c **** * \brief
   6:Generated_Source\PSoC4/BLE.c **** *  This file contains the source code for the Common APIs of the BLE Component.
   7:Generated_Source\PSoC4/BLE.c **** * 
   8:Generated_Source\PSoC4/BLE.c **** ********************************************************************************
   9:Generated_Source\PSoC4/BLE.c **** * \copyright
  10:Generated_Source\PSoC4/BLE.c **** * Copyright 2014-2016, Cypress Semiconductor Corporation.  All rights reserved.
  11:Generated_Source\PSoC4/BLE.c **** * You may use this file only in accordance with the license, terms, conditions,
  12:Generated_Source\PSoC4/BLE.c **** * disclaimers, and limitations in the end user license agreement accompanying
  13:Generated_Source\PSoC4/BLE.c **** * the software package with which this file was provided.
  14:Generated_Source\PSoC4/BLE.c **** *******************************************************************************/
  15:Generated_Source\PSoC4/BLE.c **** 
  16:Generated_Source\PSoC4/BLE.c **** #include "BLE_eventHandler.h"
  17:Generated_Source\PSoC4/BLE.c **** #include "BLE_HAL_PVT.h"
  18:Generated_Source\PSoC4/BLE.c **** #include <stdlib.h>
  19:Generated_Source\PSoC4/BLE.c **** 
  20:Generated_Source\PSoC4/BLE.c **** 
  21:Generated_Source\PSoC4/BLE.c **** /***************************************
  22:Generated_Source\PSoC4/BLE.c **** * Function Prototypes
  23:Generated_Source\PSoC4/BLE.c **** ***************************************/
  24:Generated_Source\PSoC4/BLE.c **** 
  25:Generated_Source\PSoC4/BLE.c **** #if(CYBLE_GATT_ROLE_SERVER)
  26:Generated_Source\PSoC4/BLE.c ****     #if(CYBLE_GAP_ROLE_PERIPHERAL)
  27:Generated_Source\PSoC4/BLE.c ****         static void CyBle_ChangeAdLocalName(const char8 name[], uint8 dest);
  28:Generated_Source\PSoC4/BLE.c ****     #endif /* (CYBLE_GAP_ROLE_PERIPHERAL) */
  29:Generated_Source\PSoC4/BLE.c **** #endif /* (CYBLE_GATT_ROLE_SERVER) */
  30:Generated_Source\PSoC4/BLE.c ****     
  31:Generated_Source\PSoC4/BLE.c **** 
  32:Generated_Source\PSoC4/BLE.c **** /***************************************
  33:Generated_Source\PSoC4/BLE.c **** * Global Variables
  34:Generated_Source\PSoC4/BLE.c **** ***************************************/
ARM GAS  C:\Users\cnpan\AppData\Local\Temp\ccpThEhj.s 			page 3


  35:Generated_Source\PSoC4/BLE.c **** 
  36:Generated_Source\PSoC4/BLE.c **** /* Indicates whether the BLE has been initialized. The variable is initialized to
  37:Generated_Source\PSoC4/BLE.c ****    0 and set to 1 the first time CyBle_Start() is called. This allows the component
  38:Generated_Source\PSoC4/BLE.c ****    to restart without reinitialization after the first call to the CyBle_Start() 
  39:Generated_Source\PSoC4/BLE.c ****    routine. If reinitialization of the component is required, the variable should 
  40:Generated_Source\PSoC4/BLE.c ****    be set to 0 before the CyBle_Start() routine is called. Alternatively, the BLE
  41:Generated_Source\PSoC4/BLE.c ****    can be reinitialized by calling the CyBle_Init() function.
  42:Generated_Source\PSoC4/BLE.c **** */
  43:Generated_Source\PSoC4/BLE.c **** uint8  cyBle_initVar = 0u;
  44:Generated_Source\PSoC4/BLE.c **** 
  45:Generated_Source\PSoC4/BLE.c **** /* Allocate RAM memory for stack. This buffer could be reused by application when 
  46:Generated_Source\PSoC4/BLE.c ****    BLE component is stopped. For export mode buffer is allocated in heap.
  47:Generated_Source\PSoC4/BLE.c **** */
  48:Generated_Source\PSoC4/BLE.c **** #if(CYBLE_SHARING_MODE_EXPORT)
  49:Generated_Source\PSoC4/BLE.c ****     
  50:Generated_Source\PSoC4/BLE.c **** uint8 *cyBle_stackMemoryRam = NULL;
  51:Generated_Source\PSoC4/BLE.c **** 
  52:Generated_Source\PSoC4/BLE.c **** #else
  53:Generated_Source\PSoC4/BLE.c **** 
  54:Generated_Source\PSoC4/BLE.c **** CYBLE_CYALIGNED_BEGIN CY_NOINIT uint8 cyBle_stackMemoryRam[CYBLE_STACK_RAM_SIZE] CYBLE_CYALIGNED_EN
  55:Generated_Source\PSoC4/BLE.c **** 
  56:Generated_Source\PSoC4/BLE.c **** #endif  /* CYBLE_SHARING_MODE_EXPORT */
  57:Generated_Source\PSoC4/BLE.c **** 
  58:Generated_Source\PSoC4/BLE.c **** #if(CYBLE_GAP_ROLE_PERIPHERAL || CYBLE_GAP_ROLE_BROADCASTER)
  59:Generated_Source\PSoC4/BLE.c **** 
  60:Generated_Source\PSoC4/BLE.c **** 
  61:Generated_Source\PSoC4/BLE.c **** 
  62:Generated_Source\PSoC4/BLE.c **** #endif /* CYBLE_GAP_ROLE_PERIPHERAL || CYBLE_GAP_ROLE_BROADCASTER */
  63:Generated_Source\PSoC4/BLE.c **** 
  64:Generated_Source\PSoC4/BLE.c **** #if(CYBLE_GAP_ROLE_CENTRAL)
  65:Generated_Source\PSoC4/BLE.c ****     
  66:Generated_Source\PSoC4/BLE.c **** CYBLE_GAPC_CONN_PARAM_T cyBle_connectionParameters;
  67:Generated_Source\PSoC4/BLE.c **** 
  68:Generated_Source\PSoC4/BLE.c **** /* Connecting timeout is set to 30 seconds in CyBle_Init function. 
  69:Generated_Source\PSoC4/BLE.c ****    Not zero value starts timer in CyBle_GapcConnectDevice API.
  70:Generated_Source\PSoC4/BLE.c **** */
  71:Generated_Source\PSoC4/BLE.c **** uint16 cyBle_connectingTimeout;
  72:Generated_Source\PSoC4/BLE.c ****     
  73:Generated_Source\PSoC4/BLE.c **** #endif /* CYBLE_GAP_ROLE_CENTRAL */
  74:Generated_Source\PSoC4/BLE.c **** 
  75:Generated_Source\PSoC4/BLE.c **** #if(CYBLE_GAP_ROLE_CENTRAL || CYBLE_GAP_ROLE_OBSERVER)
  76:Generated_Source\PSoC4/BLE.c ****     
  77:Generated_Source\PSoC4/BLE.c **** /* This variable of type CYBLE_GAPC_DISC_INFO_T is present only when  
  78:Generated_Source\PSoC4/BLE.c ****    the BLE component is configured for Central GAP role or Central and  
  79:Generated_Source\PSoC4/BLE.c ****    Peripheral GAP role. It contains the Scan settings entered in the  
  80:Generated_Source\PSoC4/BLE.c ****    customizer. This variable can be used by advanced users to change Scan  
  81:Generated_Source\PSoC4/BLE.c ****    settings in runtime.
  82:Generated_Source\PSoC4/BLE.c **** */
  83:Generated_Source\PSoC4/BLE.c **** CYBLE_GAPC_DISC_INFO_T cyBle_discoveryInfo =
  84:Generated_Source\PSoC4/BLE.c **** {
  85:Generated_Source\PSoC4/BLE.c ****     0x02u,      /* discProcedure */
  86:Generated_Source\PSoC4/BLE.c ****     0x01u,      /* scanType */
  87:Generated_Source\PSoC4/BLE.c ****     0x0050u,    /* scanInterval */
  88:Generated_Source\PSoC4/BLE.c ****     0x0008u,    /* scanWindow */
  89:Generated_Source\PSoC4/BLE.c ****     0x00u,      /* ownAddrType */
  90:Generated_Source\PSoC4/BLE.c ****     0x00u,      /* scanFilterPolicy */
  91:Generated_Source\PSoC4/BLE.c ****     0x0000u,    /* scanTO */
ARM GAS  C:\Users\cnpan\AppData\Local\Temp\ccpThEhj.s 			page 4


  92:Generated_Source\PSoC4/BLE.c ****     0x01u,      /* filterDuplicates */
  93:Generated_Source\PSoC4/BLE.c **** };
  94:Generated_Source\PSoC4/BLE.c ****     
  95:Generated_Source\PSoC4/BLE.c **** #endif /* CYBLE_GAP_ROLE_CENTRAL || CYBLE_GAP_ROLE_OBSERVER */
  96:Generated_Source\PSoC4/BLE.c **** 
  97:Generated_Source\PSoC4/BLE.c **** #if((CYBLE_GAP_ROLE_PERIPHERAL || CYBLE_GAP_ROLE_CENTRAL) && (CYBLE_BONDING_REQUIREMENT == CYBLE_BO
  98:Generated_Source\PSoC4/BLE.c **** 
  99:Generated_Source\PSoC4/BLE.c **** uint8 cyBle_peerBonding;
 100:Generated_Source\PSoC4/BLE.c **** uint8 cyBle_pendingFlashWrite;
 101:Generated_Source\PSoC4/BLE.c ****     
 102:Generated_Source\PSoC4/BLE.c **** #if(CYBLE_GATT_DB_CCCD_COUNT != 0u)
 103:Generated_Source\PSoC4/BLE.c ****     static uint8 cyBle_pendingFlashClearCccdHandle;
 104:Generated_Source\PSoC4/BLE.c **** #endif /* CYBLE_GATT_DB_CCCD_COUNT != 0u */
 105:Generated_Source\PSoC4/BLE.c ****     
 106:Generated_Source\PSoC4/BLE.c **** #endif  /* (CYBLE_BONDING_REQUIREMENT == CYBLE_BONDING_YES) */
 107:Generated_Source\PSoC4/BLE.c **** 
 108:Generated_Source\PSoC4/BLE.c **** CYBLE_CALLBACK_T CyBle_ApplCallback;
 109:Generated_Source\PSoC4/BLE.c **** CYBLE_GAP_BD_ADDR_T cyBle_deviceAddress = {{0x25u, 0x43u, 0x65u, 0x50u, 0xA0u, 0x00u}, 0x00u };
 110:Generated_Source\PSoC4/BLE.c **** CYBLE_GAP_BD_ADDR_T * cyBle_sflashDeviceAddress = CYBLE_SFLASH_DEVICE_ADDRESS_PTR;
 111:Generated_Source\PSoC4/BLE.c **** 
 112:Generated_Source\PSoC4/BLE.c **** 
 113:Generated_Source\PSoC4/BLE.c **** /******************************************************************************
 114:Generated_Source\PSoC4/BLE.c **** * Function Name: CyBle_Init
 115:Generated_Source\PSoC4/BLE.c **** ***************************************************************************//**
 116:Generated_Source\PSoC4/BLE.c **** *
 117:Generated_Source\PSoC4/BLE.c **** *   Initializes the component with the parameters set in the customizer.
 118:Generated_Source\PSoC4/BLE.c **** * 
 119:Generated_Source\PSoC4/BLE.c **** *  \return
 120:Generated_Source\PSoC4/BLE.c **** *   None
 121:Generated_Source\PSoC4/BLE.c **** * 
 122:Generated_Source\PSoC4/BLE.c **** ******************************************************************************/
 123:Generated_Source\PSoC4/BLE.c **** void CyBle_Init(void)
 124:Generated_Source\PSoC4/BLE.c **** {
  77              		.loc 1 124 0
  78              		.cfi_startproc
  79              		@ args = 0, pretend = 0, frame = 0
  80              		@ frame_needed = 1, uses_anonymous_args = 0
  81 0000 80B5     		push	{r7, lr}
  82              		.cfi_def_cfa_offset 8
  83              		.cfi_offset 7, -8
  84              		.cfi_offset 14, -4
  85 0002 00AF     		add	r7, sp, #0
  86              		.cfi_def_cfa_register 7
 125:Generated_Source\PSoC4/BLE.c ****     cyBle_eventHandlerFlag = 0u;
  87              		.loc 1 125 0
  88 0004 1A4B     		ldr	r3, .L2
  89 0006 0022     		movs	r2, #0
  90 0008 1A70     		strb	r2, [r3]
 126:Generated_Source\PSoC4/BLE.c ****     cyBle_busyStatus = CYBLE_STACK_STATE_FREE;
  91              		.loc 1 126 0
  92 000a 1A4B     		ldr	r3, .L2+4
  93 000c 0022     		movs	r2, #0
  94 000e 1A70     		strb	r2, [r3]
 127:Generated_Source\PSoC4/BLE.c **** 
 128:Generated_Source\PSoC4/BLE.c ****     #if(CYBLE_GAP_ROLE_PERIPHERAL || CYBLE_GAP_ROLE_BROADCASTER) 
 129:Generated_Source\PSoC4/BLE.c ****         cyBle_advertisingIntervalType = CYBLE_ADVERTISING_FAST; 
 130:Generated_Source\PSoC4/BLE.c ****     #endif /* (CYBLE_GAP_ROLE_PERIPHERAL || CYBLE_GAP_ROLE_BROADCASTER)  */
ARM GAS  C:\Users\cnpan\AppData\Local\Temp\ccpThEhj.s 			page 5


 131:Generated_Source\PSoC4/BLE.c ****     #if(CYBLE_GAP_ROLE_CENTRAL || CYBLE_GAP_ROLE_OBSERVER)
 132:Generated_Source\PSoC4/BLE.c ****         cyBle_scanningIntervalType = CYBLE_SCANNING_FAST; 
  95              		.loc 1 132 0
  96 0010 194B     		ldr	r3, .L2+8
  97 0012 0022     		movs	r2, #0
  98 0014 1A70     		strb	r2, [r3]
 133:Generated_Source\PSoC4/BLE.c ****     #endif /* (CYBLE_GAP_ROLE_CENTRAL || CYBLE_GAP_ROLE_OBSERVER) */
 134:Generated_Source\PSoC4/BLE.c ****         
 135:Generated_Source\PSoC4/BLE.c ****     /* Init default connection parameters. 
 136:Generated_Source\PSoC4/BLE.c ****        Application may change it before initiating a connection */
 137:Generated_Source\PSoC4/BLE.c ****     #if(CYBLE_GAP_ROLE_CENTRAL)
 138:Generated_Source\PSoC4/BLE.c ****         cyBle_connectionParameters.scanIntv = cyBle_discoveryInfo.scanIntv;
  99              		.loc 1 138 0
 100 0016 194B     		ldr	r3, .L2+12
 101 0018 5A88     		ldrh	r2, [r3, #2]
 102 001a 194B     		ldr	r3, .L2+16
 103 001c 1A80     		strh	r2, [r3]
 139:Generated_Source\PSoC4/BLE.c ****         cyBle_connectionParameters.scanWindow = cyBle_discoveryInfo.scanWindow;
 104              		.loc 1 139 0
 105 001e 174B     		ldr	r3, .L2+12
 106 0020 9A88     		ldrh	r2, [r3, #4]
 107 0022 174B     		ldr	r3, .L2+16
 108 0024 5A80     		strh	r2, [r3, #2]
 140:Generated_Source\PSoC4/BLE.c ****         cyBle_connectionParameters.ownAddrType = cyBle_discoveryInfo.ownAddrType;
 109              		.loc 1 140 0
 110 0026 154B     		ldr	r3, .L2+12
 111 0028 9A79     		ldrb	r2, [r3, #6]
 112 002a 154B     		ldr	r3, .L2+16
 113 002c 1A73     		strb	r2, [r3, #12]
 141:Generated_Source\PSoC4/BLE.c ****         cyBle_connectionParameters.initiatorFilterPolicy = cyBle_discoveryInfo.scanFilterPolicy;
 114              		.loc 1 141 0
 115 002e 134B     		ldr	r3, .L2+12
 116 0030 DA79     		ldrb	r2, [r3, #7]
 117 0032 134B     		ldr	r3, .L2+16
 118 0034 1A71     		strb	r2, [r3, #4]
 142:Generated_Source\PSoC4/BLE.c ****         cyBle_connectionParameters.connIntvMin = CYBLE_GAPC_CONNECTION_INTERVAL_MIN;
 119              		.loc 1 142 0
 120 0036 124B     		ldr	r3, .L2+16
 121 0038 4022     		movs	r2, #64
 122 003a DA81     		strh	r2, [r3, #14]
 143:Generated_Source\PSoC4/BLE.c ****         cyBle_connectionParameters.connIntvMax = CYBLE_GAPC_CONNECTION_INTERVAL_MAX;
 123              		.loc 1 143 0
 124 003c 104B     		ldr	r3, .L2+16
 125 003e 5022     		movs	r2, #80
 126 0040 1A82     		strh	r2, [r3, #16]
 144:Generated_Source\PSoC4/BLE.c ****         cyBle_connectionParameters.connLatency = CYBLE_GAPC_CONNECTION_SLAVE_LATENCY;
 127              		.loc 1 144 0
 128 0042 0F4B     		ldr	r3, .L2+16
 129 0044 0022     		movs	r2, #0
 130 0046 5A82     		strh	r2, [r3, #18]
 145:Generated_Source\PSoC4/BLE.c ****         cyBle_connectionParameters.supervisionTO = CYBLE_GAPC_CONNECTION_TIME_OUT;
 131              		.loc 1 145 0
 132 0048 0D4B     		ldr	r3, .L2+16
 133 004a C822     		movs	r2, #200
 134 004c 5200     		lsls	r2, r2, #1
 135 004e 9A82     		strh	r2, [r3, #20]
 146:Generated_Source\PSoC4/BLE.c ****         cyBle_connectionParameters.minCeLength = 0x0000u;
ARM GAS  C:\Users\cnpan\AppData\Local\Temp\ccpThEhj.s 			page 6


 136              		.loc 1 146 0
 137 0050 0B4B     		ldr	r3, .L2+16
 138 0052 0022     		movs	r2, #0
 139 0054 DA82     		strh	r2, [r3, #22]
 147:Generated_Source\PSoC4/BLE.c ****         cyBle_connectionParameters.maxCeLength = 0xFFFFu;
 140              		.loc 1 147 0
 141 0056 0A4B     		ldr	r3, .L2+16
 142 0058 0122     		movs	r2, #1
 143 005a 5242     		rsbs	r2, r2, #0
 144 005c 1A83     		strh	r2, [r3, #24]
 148:Generated_Source\PSoC4/BLE.c ****         
 149:Generated_Source\PSoC4/BLE.c ****         cyBle_connectingTimeout = CYBLE_GAPC_CONNECTING_TIMEOUT;
 145              		.loc 1 149 0
 146 005e 094B     		ldr	r3, .L2+20
 147 0060 1E22     		movs	r2, #30
 148 0062 1A80     		strh	r2, [r3]
 150:Generated_Source\PSoC4/BLE.c ****     #endif /* CYBLE_GAP_ROLE_CENTRAL */
 151:Generated_Source\PSoC4/BLE.c **** 
 152:Generated_Source\PSoC4/BLE.c ****     CyBle_ServiceInit();
 149              		.loc 1 152 0
 150 0064 FFF7FEFF 		bl	CyBle_ServiceInit
 153:Generated_Source\PSoC4/BLE.c **** 
 154:Generated_Source\PSoC4/BLE.c ****     #if((CYBLE_GAP_ROLE_PERIPHERAL || CYBLE_GAP_ROLE_CENTRAL) && (CYBLE_BONDING_REQUIREMENT == CYBL
 155:Generated_Source\PSoC4/BLE.c ****         cyBle_pendingFlashWrite = 0u;
 156:Generated_Source\PSoC4/BLE.c ****         cyBle_peerBonding = CYBLE_GAP_BONDING_NONE;
 157:Generated_Source\PSoC4/BLE.c ****     #endif  /* (CYBLE_BONDING_REQUIREMENT == CYBLE_BONDING_YES) */
 158:Generated_Source\PSoC4/BLE.c **** 
 159:Generated_Source\PSoC4/BLE.c **** }
 151              		.loc 1 159 0
 152 0068 C046     		nop
 153 006a BD46     		mov	sp, r7
 154              		@ sp needed
 155 006c 80BD     		pop	{r7, pc}
 156              	.L3:
 157 006e C046     		.align	2
 158              	.L2:
 159 0070 00000000 		.word	cyBle_eventHandlerFlag
 160 0074 00000000 		.word	cyBle_busyStatus
 161 0078 00000000 		.word	cyBle_scanningIntervalType
 162 007c 00000000 		.word	cyBle_discoveryInfo
 163 0080 00000000 		.word	cyBle_connectionParameters
 164 0084 00000000 		.word	cyBle_connectingTimeout
 165              		.cfi_endproc
 166              	.LFE2:
 167              		.size	CyBle_Init, .-CyBle_Init
 168              		.section	.text.CyBle_ServiceInit,"ax",%progbits
 169              		.align	2
 170              		.global	CyBle_ServiceInit
 171              		.code	16
 172              		.thumb_func
 173              		.type	CyBle_ServiceInit, %function
 174              	CyBle_ServiceInit:
 175              	.LFB3:
 160:Generated_Source\PSoC4/BLE.c **** 
 161:Generated_Source\PSoC4/BLE.c **** 
 162:Generated_Source\PSoC4/BLE.c **** /******************************************************************************
 163:Generated_Source\PSoC4/BLE.c **** * Function Name: CyBle_ServiceInit
ARM GAS  C:\Users\cnpan\AppData\Local\Temp\ccpThEhj.s 			page 7


 164:Generated_Source\PSoC4/BLE.c **** ***************************************************************************//**
 165:Generated_Source\PSoC4/BLE.c **** * 
 166:Generated_Source\PSoC4/BLE.c **** *  Initializes all included services.
 167:Generated_Source\PSoC4/BLE.c **** * 
 168:Generated_Source\PSoC4/BLE.c **** * \return
 169:Generated_Source\PSoC4/BLE.c **** *  None
 170:Generated_Source\PSoC4/BLE.c **** * 
 171:Generated_Source\PSoC4/BLE.c **** ******************************************************************************/
 172:Generated_Source\PSoC4/BLE.c **** void CyBle_ServiceInit(void)
 173:Generated_Source\PSoC4/BLE.c **** {
 176              		.loc 1 173 0
 177              		.cfi_startproc
 178              		@ args = 0, pretend = 0, frame = 0
 179              		@ frame_needed = 1, uses_anonymous_args = 0
 180 0000 80B5     		push	{r7, lr}
 181              		.cfi_def_cfa_offset 8
 182              		.cfi_offset 7, -8
 183              		.cfi_offset 14, -4
 184 0002 00AF     		add	r7, sp, #0
 185              		.cfi_def_cfa_register 7
 174:Generated_Source\PSoC4/BLE.c ****     #if(CYBLE_GATT_ROLE_CLIENT)
 175:Generated_Source\PSoC4/BLE.c ****         /* Check service range before clearing to support partial discovery */
 176:Generated_Source\PSoC4/BLE.c ****         if(cyBle_serverInfo[CYBLE_SRVI_GAP].range.startHandle == CYBLE_GATT_INVALID_ATTR_HANDLE_VAL
 186              		.loc 1 176 0
 187 0004 0D4B     		ldr	r3, .L7
 188 0006 1B88     		ldrh	r3, [r3]
 189 0008 002B     		cmp	r3, #0
 190 000a 05D1     		bne	.L5
 177:Generated_Source\PSoC4/BLE.c ****         {
 178:Generated_Source\PSoC4/BLE.c ****             (void)memset(&cyBle_gapc, 0, sizeof(cyBle_gapc));
 191              		.loc 1 178 0
 192 000c 0C4B     		ldr	r3, .L7+4
 193 000e 0E22     		movs	r2, #14
 194 0010 0021     		movs	r1, #0
 195 0012 1800     		movs	r0, r3
 196 0014 FFF7FEFF 		bl	memset
 197              	.L5:
 179:Generated_Source\PSoC4/BLE.c ****         }
 180:Generated_Source\PSoC4/BLE.c ****         if(cyBle_serverInfo[CYBLE_SRVI_GATT].range.startHandle == CYBLE_GATT_INVALID_ATTR_HANDLE_VA
 198              		.loc 1 180 0
 199 0018 084B     		ldr	r3, .L7
 200 001a DB88     		ldrh	r3, [r3, #6]
 201 001c 002B     		cmp	r3, #0
 202 001e 05D1     		bne	.L6
 181:Generated_Source\PSoC4/BLE.c ****         {
 182:Generated_Source\PSoC4/BLE.c ****             (void)memset(&cyBle_gattc, 0, sizeof(cyBle_gattc));
 203              		.loc 1 182 0
 204 0020 084B     		ldr	r3, .L7+8
 205 0022 0622     		movs	r2, #6
 206 0024 0021     		movs	r1, #0
 207 0026 1800     		movs	r0, r3
 208 0028 FFF7FEFF 		bl	memset
 209              	.L6:
 183:Generated_Source\PSoC4/BLE.c ****         }
 184:Generated_Source\PSoC4/BLE.c ****     #endif /* CYBLE_GATT_ROLE_CLIENT */
 185:Generated_Source\PSoC4/BLE.c **** 
 186:Generated_Source\PSoC4/BLE.c ****    	#ifdef CYBLE_AIOS
ARM GAS  C:\Users\cnpan\AppData\Local\Temp\ccpThEhj.s 			page 8


 187:Generated_Source\PSoC4/BLE.c ****         CyBle_AiosInit();
 188:Generated_Source\PSoC4/BLE.c ****     #endif /* CYBLE_AIOS */
 189:Generated_Source\PSoC4/BLE.c **** 
 190:Generated_Source\PSoC4/BLE.c **** 	#ifdef CYBLE_ANCS
 191:Generated_Source\PSoC4/BLE.c ****         CyBle_AncsInit();
 192:Generated_Source\PSoC4/BLE.c ****     #endif /* CYBLE_ANCS */
 193:Generated_Source\PSoC4/BLE.c **** 	
 194:Generated_Source\PSoC4/BLE.c ****     #ifdef CYBLE_ANS
 195:Generated_Source\PSoC4/BLE.c ****         CyBle_AnsInit();
 196:Generated_Source\PSoC4/BLE.c ****     #endif /* CYBLE_ANS */
 197:Generated_Source\PSoC4/BLE.c ****     
 198:Generated_Source\PSoC4/BLE.c ****     #ifdef CYBLE_BAS
 199:Generated_Source\PSoC4/BLE.c ****         CyBle_BasInit();
 200:Generated_Source\PSoC4/BLE.c ****     #endif /* CYBLE_BAS */
 201:Generated_Source\PSoC4/BLE.c ****     
 202:Generated_Source\PSoC4/BLE.c ****     #ifdef CYBLE_BCS
 203:Generated_Source\PSoC4/BLE.c ****         CyBle_BcsInit();
 204:Generated_Source\PSoC4/BLE.c ****     #endif /* CYBLE_BCS */
 205:Generated_Source\PSoC4/BLE.c **** 
 206:Generated_Source\PSoC4/BLE.c ****     #ifdef CYBLE_BLS
 207:Generated_Source\PSoC4/BLE.c ****         CyBle_BlsInit();
 208:Generated_Source\PSoC4/BLE.c ****     #endif /* CYBLE_BLS */
 209:Generated_Source\PSoC4/BLE.c ****     
 210:Generated_Source\PSoC4/BLE.c ****     #ifdef CYBLE_BMS
 211:Generated_Source\PSoC4/BLE.c ****         CyBle_BmsInit();
 212:Generated_Source\PSoC4/BLE.c ****     #endif /* CYBLE_BMS */
 213:Generated_Source\PSoC4/BLE.c ****     
 214:Generated_Source\PSoC4/BLE.c ****     #ifdef CYBLE_CGMS
 215:Generated_Source\PSoC4/BLE.c ****         CyBle_CgmsInit();
 216:Generated_Source\PSoC4/BLE.c ****     #endif /* CYBLE_CGMS */
 217:Generated_Source\PSoC4/BLE.c **** 
 218:Generated_Source\PSoC4/BLE.c ****     #ifdef CYBLE_CPS
 219:Generated_Source\PSoC4/BLE.c ****         CyBle_CpsInit();
 220:Generated_Source\PSoC4/BLE.c ****     #endif /* CYBLE_CPS */
 221:Generated_Source\PSoC4/BLE.c **** 
 222:Generated_Source\PSoC4/BLE.c ****     #ifdef CYBLE_CSCS
 223:Generated_Source\PSoC4/BLE.c ****         CyBle_CscsInit();
 224:Generated_Source\PSoC4/BLE.c ****     #endif /* CYBLE_CSCS */
 225:Generated_Source\PSoC4/BLE.c ****     
 226:Generated_Source\PSoC4/BLE.c ****     #ifdef CYBLE_CTS
 227:Generated_Source\PSoC4/BLE.c ****         CyBle_CtsInit();
 228:Generated_Source\PSoC4/BLE.c ****     #endif /* CYBLE_CTS */
 229:Generated_Source\PSoC4/BLE.c **** 
 230:Generated_Source\PSoC4/BLE.c ****     #ifdef CYBLE_CUSTOM
 231:Generated_Source\PSoC4/BLE.c ****         CyBle_CustomInit();
 210              		.loc 1 231 0
 211 002c FFF7FEFF 		bl	CyBle_CustomInit
 232:Generated_Source\PSoC4/BLE.c ****     #endif /* CYBLE_CUSTOM */
 233:Generated_Source\PSoC4/BLE.c **** 
 234:Generated_Source\PSoC4/BLE.c ****     #ifdef CYBLE_DIS
 235:Generated_Source\PSoC4/BLE.c ****         CyBle_DisInit();
 236:Generated_Source\PSoC4/BLE.c ****     #endif /* CYBLE_DIS */
 237:Generated_Source\PSoC4/BLE.c **** 
 238:Generated_Source\PSoC4/BLE.c ****     #ifdef CYBLE_ESS
 239:Generated_Source\PSoC4/BLE.c ****         CyBle_EssInit();
 240:Generated_Source\PSoC4/BLE.c ****     #endif /* CYBLE_ESS */
 241:Generated_Source\PSoC4/BLE.c ****     
ARM GAS  C:\Users\cnpan\AppData\Local\Temp\ccpThEhj.s 			page 9


 242:Generated_Source\PSoC4/BLE.c ****     #ifdef CYBLE_GLS
 243:Generated_Source\PSoC4/BLE.c ****         CyBle_GlsInit();
 244:Generated_Source\PSoC4/BLE.c ****     #endif /* CYBLE_GLS */
 245:Generated_Source\PSoC4/BLE.c ****     
 246:Generated_Source\PSoC4/BLE.c ****     #ifdef CYBLE_HIDS
 247:Generated_Source\PSoC4/BLE.c ****         CyBle_HidsInit();
 248:Generated_Source\PSoC4/BLE.c ****     #endif /* CYBLE_HIDS */
 249:Generated_Source\PSoC4/BLE.c **** 
 250:Generated_Source\PSoC4/BLE.c ****     #ifdef CYBLE_HPS
 251:Generated_Source\PSoC4/BLE.c ****         CyBle_HpsInit();
 252:Generated_Source\PSoC4/BLE.c ****     #endif /* CYBLE_HPS */
 253:Generated_Source\PSoC4/BLE.c **** 
 254:Generated_Source\PSoC4/BLE.c ****     #ifdef CYBLE_HRS
 255:Generated_Source\PSoC4/BLE.c ****         CyBle_HrsInit();
 256:Generated_Source\PSoC4/BLE.c ****     #endif /* CYBLE_HRS */
 257:Generated_Source\PSoC4/BLE.c ****     
 258:Generated_Source\PSoC4/BLE.c ****     #ifdef CYBLE_HTS
 259:Generated_Source\PSoC4/BLE.c ****         CyBle_HtsInit();
 260:Generated_Source\PSoC4/BLE.c ****     #endif /* CYBLE_RSCS */
 261:Generated_Source\PSoC4/BLE.c **** 
 262:Generated_Source\PSoC4/BLE.c ****     #ifdef CYBLE_IAS
 263:Generated_Source\PSoC4/BLE.c ****         CyBle_IasInit();
 212              		.loc 1 263 0
 213 0030 FFF7FEFF 		bl	CyBle_IasInit
 264:Generated_Source\PSoC4/BLE.c ****     #endif /* CYBLE_IAS */
 265:Generated_Source\PSoC4/BLE.c **** 
 266:Generated_Source\PSoC4/BLE.c ****     #ifdef CYBLE_IPS
 267:Generated_Source\PSoC4/BLE.c ****         CyBle_IpsInit();
 268:Generated_Source\PSoC4/BLE.c ****     #endif /* CYBLE_IPS */
 269:Generated_Source\PSoC4/BLE.c ****     
 270:Generated_Source\PSoC4/BLE.c ****     #ifdef CYBLE_LLS
 271:Generated_Source\PSoC4/BLE.c ****         CyBle_LlsInit();
 272:Generated_Source\PSoC4/BLE.c ****     #endif /* CYBLE_LLS */
 273:Generated_Source\PSoC4/BLE.c **** 
 274:Generated_Source\PSoC4/BLE.c ****     #ifdef CYBLE_LNS
 275:Generated_Source\PSoC4/BLE.c ****         CyBle_LnsInit();
 276:Generated_Source\PSoC4/BLE.c ****     #endif /* CYBLE_LNS */
 277:Generated_Source\PSoC4/BLE.c ****     
 278:Generated_Source\PSoC4/BLE.c ****     #ifdef CYBLE_NDCS
 279:Generated_Source\PSoC4/BLE.c ****         CyBle_NdcsInit();
 280:Generated_Source\PSoC4/BLE.c ****     #endif /* CYBLE_NDCS */
 281:Generated_Source\PSoC4/BLE.c ****     
 282:Generated_Source\PSoC4/BLE.c ****     #ifdef CYBLE_PASS
 283:Generated_Source\PSoC4/BLE.c ****         CyBle_PassInit();
 284:Generated_Source\PSoC4/BLE.c ****     #endif /* CYBLE_PASS */
 285:Generated_Source\PSoC4/BLE.c ****     
 286:Generated_Source\PSoC4/BLE.c ****     #ifdef CYBLE_PLXS
 287:Generated_Source\PSoC4/BLE.c ****         CyBle_PlxsInit();
 288:Generated_Source\PSoC4/BLE.c ****     #endif /* CYBLE_PLXS */
 289:Generated_Source\PSoC4/BLE.c ****     
 290:Generated_Source\PSoC4/BLE.c ****     #ifdef CYBLE_RSCS
 291:Generated_Source\PSoC4/BLE.c ****         CyBle_RscsInit();
 292:Generated_Source\PSoC4/BLE.c ****     #endif /* CYBLE_RSCS */
 293:Generated_Source\PSoC4/BLE.c **** 
 294:Generated_Source\PSoC4/BLE.c ****     #ifdef CYBLE_RTUS
 295:Generated_Source\PSoC4/BLE.c ****         CyBle_RtusInit();
 296:Generated_Source\PSoC4/BLE.c ****     #endif /* CYBLE_RTUS */
ARM GAS  C:\Users\cnpan\AppData\Local\Temp\ccpThEhj.s 			page 10


 297:Generated_Source\PSoC4/BLE.c **** 
 298:Generated_Source\PSoC4/BLE.c ****     #ifdef CYBLE_SCPS
 299:Generated_Source\PSoC4/BLE.c ****         CyBle_ScpsInit();
 300:Generated_Source\PSoC4/BLE.c ****     #endif /* CYBLE_SCPS */
 301:Generated_Source\PSoC4/BLE.c ****     
 302:Generated_Source\PSoC4/BLE.c ****     #ifdef CYBLE_TPS
 303:Generated_Source\PSoC4/BLE.c ****         CyBle_TpsInit();
 304:Generated_Source\PSoC4/BLE.c ****     #endif /* CYBLE_TPS */
 305:Generated_Source\PSoC4/BLE.c ****     
 306:Generated_Source\PSoC4/BLE.c ****     #ifdef CYBLE_UDS
 307:Generated_Source\PSoC4/BLE.c ****         CyBle_UdsInit();
 308:Generated_Source\PSoC4/BLE.c ****     #endif /* CYBLE_UDS */
 309:Generated_Source\PSoC4/BLE.c **** 
 310:Generated_Source\PSoC4/BLE.c ****     #ifdef CYBLE_WPTS
 311:Generated_Source\PSoC4/BLE.c ****         CyBle_WptsInit();
 312:Generated_Source\PSoC4/BLE.c ****     #endif /* CYBLE_WPTS */
 313:Generated_Source\PSoC4/BLE.c **** 
 314:Generated_Source\PSoC4/BLE.c ****     #ifdef CYBLE_WSS
 315:Generated_Source\PSoC4/BLE.c ****         CyBle_WssInit();
 316:Generated_Source\PSoC4/BLE.c ****     #endif /* CYBLE_WSS */
 317:Generated_Source\PSoC4/BLE.c **** }
 214              		.loc 1 317 0
 215 0034 C046     		nop
 216 0036 BD46     		mov	sp, r7
 217              		@ sp needed
 218 0038 80BD     		pop	{r7, pc}
 219              	.L8:
 220 003a C046     		.align	2
 221              	.L7:
 222 003c 00000000 		.word	cyBle_serverInfo
 223 0040 00000000 		.word	cyBle_gapc
 224 0044 00000000 		.word	cyBle_gattc
 225              		.cfi_endproc
 226              	.LFE3:
 227              		.size	CyBle_ServiceInit, .-CyBle_ServiceInit
 228              		.section	.rodata
 229              		.align	2
 230              	.LC0:
 231 0000 2400     		.short	36
 232 0002 03       		.byte	3
 233 0003 00       		.space	1
 234 0004 3000     		.short	48
 235 0006 01       		.byte	1
 236 0007 00       		.space	1
 237 0008 2800     		.short	40
 238 000a 02       		.byte	2
 239 000b 00       		.space	1
 240 000c 2400     		.short	36
 241 000e 01       		.byte	1
 242 000f 00       		.space	1
 243 0010 2400     		.short	36
 244 0012 01       		.byte	1
 245 0013 00       		.space	1
 246              		.section	.text.CyBle_Start,"ax",%progbits
 247              		.align	2
 248              		.global	CyBle_Start
 249              		.code	16
ARM GAS  C:\Users\cnpan\AppData\Local\Temp\ccpThEhj.s 			page 11


 250              		.thumb_func
 251              		.type	CyBle_Start, %function
 252              	CyBle_Start:
 253              	.LFB4:
 318:Generated_Source\PSoC4/BLE.c **** 
 319:Generated_Source\PSoC4/BLE.c **** 
 320:Generated_Source\PSoC4/BLE.c **** /******************************************************************************
 321:Generated_Source\PSoC4/BLE.c **** * Function Name: CyBle_Start
 322:Generated_Source\PSoC4/BLE.c **** ***************************************************************************//**
 323:Generated_Source\PSoC4/BLE.c **** * 
 324:Generated_Source\PSoC4/BLE.c **** *  This function initializes the BLE Stack, which consists of the BLE Stack 
 325:Generated_Source\PSoC4/BLE.c **** *  Manager, BLE Controller, and BLE Host modules. It takes care of initializing
 326:Generated_Source\PSoC4/BLE.c **** *  the Profile layer, schedulers, Timer and other platform related
 327:Generated_Source\PSoC4/BLE.c **** *  resources required for the BLE component. It also registers the callback 
 328:Generated_Source\PSoC4/BLE.c **** *  function for BLE events that will be registered in the BLE stack.
 329:Generated_Source\PSoC4/BLE.c **** * 
 330:Generated_Source\PSoC4/BLE.c **** *  Note that this function does not reset the BLE Stack.
 331:Generated_Source\PSoC4/BLE.c **** * 
 332:Generated_Source\PSoC4/BLE.c **** *  For HCI-Mode of operation, this function will not initialize the BLE Host 
 333:Generated_Source\PSoC4/BLE.c **** *  module.
 334:Generated_Source\PSoC4/BLE.c **** * 
 335:Generated_Source\PSoC4/BLE.c **** *  Calling this function results in the generation of CYBLE_EVT_STACK_ON event
 336:Generated_Source\PSoC4/BLE.c **** *  on successful initialization of the BLE Stack.
 337:Generated_Source\PSoC4/BLE.c **** * 
 338:Generated_Source\PSoC4/BLE.c **** *  \param callbackFunc: Event callback function to receive events from BLE stack.
 339:Generated_Source\PSoC4/BLE.c **** *   CYBLE_CALLBACK_T is a function pointer type.
 340:Generated_Source\PSoC4/BLE.c **** * 
 341:Generated_Source\PSoC4/BLE.c **** * \return
 342:Generated_Source\PSoC4/BLE.c **** *  CYBLE_API_RESULT_T : Return value indicates if the function succeeded or 
 343:Generated_Source\PSoC4/BLE.c **** *  failed. Following are the possible error codes.
 344:Generated_Source\PSoC4/BLE.c **** * 
 345:Generated_Source\PSoC4/BLE.c **** *   <table>
 346:Generated_Source\PSoC4/BLE.c **** *  	  <tr>
 347:Generated_Source\PSoC4/BLE.c **** *       <th>Error codes</th>
 348:Generated_Source\PSoC4/BLE.c **** *       <th>Description</th>
 349:Generated_Source\PSoC4/BLE.c **** *     </tr>
 350:Generated_Source\PSoC4/BLE.c **** *     <tr>
 351:Generated_Source\PSoC4/BLE.c **** *       <td>CYBLE_ERROR_OK</td>
 352:Generated_Source\PSoC4/BLE.c **** *       <td>On successful operation.</td>
 353:Generated_Source\PSoC4/BLE.c **** *     </tr>
 354:Generated_Source\PSoC4/BLE.c **** *     <tr>
 355:Generated_Source\PSoC4/BLE.c **** *       <td>CYBLE_ERROR_INVALID_PARAMETER</td>
 356:Generated_Source\PSoC4/BLE.c **** *       <td>On passing a NULL pointer to the function. 
 357:Generated_Source\PSoC4/BLE.c **** *		</td>
 358:Generated_Source\PSoC4/BLE.c **** *     </tr>
 359:Generated_Source\PSoC4/BLE.c **** *     <tr>
 360:Generated_Source\PSoC4/BLE.c **** *       <td>CYBLE_ERROR_REPEATED_ATTEMPTS</td>
 361:Generated_Source\PSoC4/BLE.c **** *       <td>On invoking this function more than once without calling CyBle_Shutdown() 
 362:Generated_Source\PSoC4/BLE.c **** *           function between calls to this function.</td>
 363:Generated_Source\PSoC4/BLE.c **** *     </tr>
 364:Generated_Source\PSoC4/BLE.c **** *     <tr>
 365:Generated_Source\PSoC4/BLE.c **** *       <td>CYBLE_ERROR_MEMORY_ALLOCATION_FAILED</td>
 366:Generated_Source\PSoC4/BLE.c **** *       <td>There is insufficient memory available.</td>
 367:Generated_Source\PSoC4/BLE.c **** *     </tr>
 368:Generated_Source\PSoC4/BLE.c **** *   </table>
 369:Generated_Source\PSoC4/BLE.c **** * 
 370:Generated_Source\PSoC4/BLE.c **** *  \globalvars
ARM GAS  C:\Users\cnpan\AppData\Local\Temp\ccpThEhj.s 			page 12


 371:Generated_Source\PSoC4/BLE.c **** *   The CyBle_initVar variable is used to indicate initial
 372:Generated_Source\PSoC4/BLE.c **** *   configuration of this component. The variable is initialized to zero (0u)
 373:Generated_Source\PSoC4/BLE.c **** *   and set to one (1u) the first time CyBle_Start() is called. This
 374:Generated_Source\PSoC4/BLE.c **** *   allows for component initialization without re-initialization in all
 375:Generated_Source\PSoC4/BLE.c **** *   subsequent calls to the CyBle_Start() routine.
 376:Generated_Source\PSoC4/BLE.c **** * 
 377:Generated_Source\PSoC4/BLE.c **** ******************************************************************************/
 378:Generated_Source\PSoC4/BLE.c **** CYBLE_API_RESULT_T CyBle_Start(CYBLE_CALLBACK_T callbackFunc)
 379:Generated_Source\PSoC4/BLE.c **** {
 254              		.loc 1 379 0
 255              		.cfi_startproc
 256              		@ args = 0, pretend = 0, frame = 64
 257              		@ frame_needed = 1, uses_anonymous_args = 0
 258 0000 B0B5     		push	{r4, r5, r7, lr}
 259              		.cfi_def_cfa_offset 16
 260              		.cfi_offset 4, -16
 261              		.cfi_offset 5, -12
 262              		.cfi_offset 7, -8
 263              		.cfi_offset 14, -4
 264 0002 94B0     		sub	sp, sp, #80
 265              		.cfi_def_cfa_offset 96
 266 0004 04AF     		add	r7, sp, #16
 267              		.cfi_def_cfa 7, 80
 268 0006 7860     		str	r0, [r7, #4]
 380:Generated_Source\PSoC4/BLE.c ****     CYBLE_API_RESULT_T apiResult = CYBLE_ERROR_OK;
 269              		.loc 1 380 0
 270 0008 3E23     		movs	r3, #62
 271 000a FB18     		adds	r3, r7, r3
 272 000c 0022     		movs	r2, #0
 273 000e 1A80     		strh	r2, [r3]
 381:Generated_Source\PSoC4/BLE.c ****     
 382:Generated_Source\PSoC4/BLE.c ****     #if(CYBLE_MODE_PROFILE)
 383:Generated_Source\PSoC4/BLE.c ****     
 384:Generated_Source\PSoC4/BLE.c ****     CYBLE_STK_APP_DATA_BUFF_T cyBle_stackDataBuff[CYBLE_STACK_APP_MIN_POOL] = 
 274              		.loc 1 384 0
 275 0010 2823     		movs	r3, #40
 276 0012 FA18     		adds	r2, r7, r3
 277 0014 394B     		ldr	r3, .L16
 278 0016 1000     		movs	r0, r2
 279 0018 1900     		movs	r1, r3
 280 001a 1423     		movs	r3, #20
 281 001c 1A00     		movs	r2, r3
 282 001e FFF7FEFF 		bl	memcpy
 385:Generated_Source\PSoC4/BLE.c ****     {
 386:Generated_Source\PSoC4/BLE.c ****         {CYBLE_GATT_MTU_PLUS_L2CAP_MEM_EXT, CYBLE_GATT_MTU_BUFF_COUNT + CYBLE_GATT_MAX_ATTR_BUFF_CO
 387:Generated_Source\PSoC4/BLE.c ****         {CYBLE_L2CAP_PSM_PLUS_L2CAP_MEM_EXT, CYBLE_L2CAP_PSM_COUNT},
 388:Generated_Source\PSoC4/BLE.c ****         {CYBLE_L2CAP_CBFC_PLUS_L2CAP_MEM_EXT, 2u * CYBLE_L2CAP_LOGICAL_CHANNEL_COUNT},
 389:Generated_Source\PSoC4/BLE.c ****         {CYBLE_L2CAP_MTU_PLUS_L2CAP_MEM_EXT, CYBLE_L2CAP_LOGICAL_CHANNEL_COUNT},
 390:Generated_Source\PSoC4/BLE.c ****         {CYBLE_L2CAP_MPS_PLUS_L2CAP_MEM_EXT, CYBLE_L2CAP_LOGICAL_CHANNEL_COUNT * (CYBLE_L2CAP_MTU_M
 391:Generated_Source\PSoC4/BLE.c ****     }; 
 392:Generated_Source\PSoC4/BLE.c **** 
 393:Generated_Source\PSoC4/BLE.c ****     #endif /* CYBLE_MODE_PROFILE */
 394:Generated_Source\PSoC4/BLE.c ****     
 395:Generated_Source\PSoC4/BLE.c ****     /* If not initialized then initialize all the required hardware and software */
 396:Generated_Source\PSoC4/BLE.c ****     if(cyBle_initVar == 0u)
 283              		.loc 1 396 0
 284 0022 374B     		ldr	r3, .L16+4
ARM GAS  C:\Users\cnpan\AppData\Local\Temp\ccpThEhj.s 			page 13


 285 0024 1B78     		ldrb	r3, [r3]
 286 0026 002B     		cmp	r3, #0
 287 0028 04D1     		bne	.L10
 397:Generated_Source\PSoC4/BLE.c ****     {
 398:Generated_Source\PSoC4/BLE.c ****         CyBle_Init();
 288              		.loc 1 398 0
 289 002a FFF7FEFF 		bl	CyBle_Init
 399:Generated_Source\PSoC4/BLE.c ****         cyBle_initVar = 1u;
 290              		.loc 1 399 0
 291 002e 344B     		ldr	r3, .L16+4
 292 0030 0122     		movs	r2, #1
 293 0032 1A70     		strb	r2, [r3]
 294              	.L10:
 400:Generated_Source\PSoC4/BLE.c ****     }
 401:Generated_Source\PSoC4/BLE.c ****     
 402:Generated_Source\PSoC4/BLE.c ****     if(callbackFunc != NULL)
 295              		.loc 1 402 0
 296 0034 7B68     		ldr	r3, [r7, #4]
 297 0036 002B     		cmp	r3, #0
 298 0038 55D0     		beq	.L11
 403:Generated_Source\PSoC4/BLE.c ****     {
 404:Generated_Source\PSoC4/BLE.c ****         CyBle_ApplCallback = callbackFunc;
 299              		.loc 1 404 0
 300 003a 324B     		ldr	r3, .L16+8
 301 003c 7A68     		ldr	r2, [r7, #4]
 302 003e 1A60     		str	r2, [r3]
 405:Generated_Source\PSoC4/BLE.c ****         
 406:Generated_Source\PSoC4/BLE.c ****     #if(CYBLE_SHARING_MODE_EXPORT)
 407:Generated_Source\PSoC4/BLE.c ****         if(cyBle_stackMemoryRam == NULL)
 408:Generated_Source\PSoC4/BLE.c ****         {
 409:Generated_Source\PSoC4/BLE.c ****             cyBle_stackMemoryRam = (uint8 *)malloc(CYBLE_STACK_RAM_SIZE);
 410:Generated_Source\PSoC4/BLE.c ****             if(cyBle_stackMemoryRam == NULL)
 411:Generated_Source\PSoC4/BLE.c ****             {
 412:Generated_Source\PSoC4/BLE.c ****                 apiResult = CYBLE_ERROR_MEMORY_ALLOCATION_FAILED;
 413:Generated_Source\PSoC4/BLE.c ****             }
 414:Generated_Source\PSoC4/BLE.c ****         }
 415:Generated_Source\PSoC4/BLE.c ****     #endif /* CYBLE_SHARING_MODE_EXPORT */
 416:Generated_Source\PSoC4/BLE.c ****         if(apiResult == CYBLE_ERROR_OK)
 303              		.loc 1 416 0
 304 0040 3E23     		movs	r3, #62
 305 0042 FB18     		adds	r3, r7, r3
 306 0044 1B88     		ldrh	r3, [r3]
 307 0046 002B     		cmp	r3, #0
 308 0048 29D1     		bne	.L12
 309              	.LBB2:
 417:Generated_Source\PSoC4/BLE.c ****         {
 418:Generated_Source\PSoC4/BLE.c ****             CYBLE_DLE_CONFIG_PARAM_T dleConfigParams;
 419:Generated_Source\PSoC4/BLE.c ****             CYBLE_PRIVACY_1_2_CONFIG_PARAM_T privacyConfigParams;
 420:Generated_Source\PSoC4/BLE.c ****             CYBLE_STACK_CONFIG_PARAM_T stackConfig;
 421:Generated_Source\PSoC4/BLE.c ****             uint16 featureHeapReq;
 422:Generated_Source\PSoC4/BLE.c ****             
 423:Generated_Source\PSoC4/BLE.c ****             stackConfig.privacyConfig = &privacyConfigParams;
 310              		.loc 1 423 0
 311 004a 1023     		movs	r3, #16
 312 004c FB18     		adds	r3, r7, r3
 313 004e 1C22     		movs	r2, #28
 314 0050 BA18     		adds	r2, r7, r2
ARM GAS  C:\Users\cnpan\AppData\Local\Temp\ccpThEhj.s 			page 14


 315 0052 5A60     		str	r2, [r3, #4]
 424:Generated_Source\PSoC4/BLE.c ****             stackConfig.dleConfig = &dleConfigParams;
 316              		.loc 1 424 0
 317 0054 1023     		movs	r3, #16
 318 0056 FB18     		adds	r3, r7, r3
 319 0058 2022     		movs	r2, #32
 320 005a BA18     		adds	r2, r7, r2
 321 005c 1A60     		str	r2, [r3]
 425:Generated_Source\PSoC4/BLE.c ****             
 426:Generated_Source\PSoC4/BLE.c ****             /* Configure default BLE 4.1 features and enabled 4.2 features */
 427:Generated_Source\PSoC4/BLE.c ****             stackConfig.feature_mask = CYBLE_DLE_FEATURE | CYBLE_LL_PRIVACY_FEATURE | 
 322              		.loc 1 427 0
 323 005e 1023     		movs	r3, #16
 324 0060 FB18     		adds	r3, r7, r3
 325 0062 0022     		movs	r2, #0
 326 0064 1A81     		strh	r2, [r3, #8]
 428:Generated_Source\PSoC4/BLE.c ****                                        CYBLE_SECURE_CONN_FEATURE;
 429:Generated_Source\PSoC4/BLE.c **** 
 430:Generated_Source\PSoC4/BLE.c ****             /* Configure DLE */
 431:Generated_Source\PSoC4/BLE.c ****             dleConfigParams.dleMaxTxCapability = CYBLE_LL_MAX_TX_PAYLOAD_SIZE;
 327              		.loc 1 431 0
 328 0066 2023     		movs	r3, #32
 329 0068 FB18     		adds	r3, r7, r3
 330 006a 1B22     		movs	r2, #27
 331 006c 1A80     		strh	r2, [r3]
 432:Generated_Source\PSoC4/BLE.c ****             dleConfigParams.dleMaxRxCapability = CYBLE_LL_MAX_RX_PAYLOAD_SIZE;
 332              		.loc 1 432 0
 333 006e 2023     		movs	r3, #32
 334 0070 FB18     		adds	r3, r7, r3
 335 0072 1B22     		movs	r2, #27
 336 0074 5A80     		strh	r2, [r3, #2]
 433:Generated_Source\PSoC4/BLE.c ****             dleConfigParams.dleNumTxBuffer = CYBLE_LL_DEFAULT_NUM_ACL_TX_PACKETS;
 337              		.loc 1 433 0
 338 0076 2023     		movs	r3, #32
 339 0078 FB18     		adds	r3, r7, r3
 340 007a 0422     		movs	r2, #4
 341 007c 1A71     		strb	r2, [r3, #4]
 434:Generated_Source\PSoC4/BLE.c ****         #if(CYBLE_DLE_FEATURE_ENABLED)
 435:Generated_Source\PSoC4/BLE.c ****             CyBle_EnableDleFeature();              /* Enable DLE code in stack */
 436:Generated_Source\PSoC4/BLE.c ****         #endif /* CYBLE_DLE_FEATURE_ENABLED */
 437:Generated_Source\PSoC4/BLE.c ****         
 438:Generated_Source\PSoC4/BLE.c ****             /* Configure LL Privacy */
 439:Generated_Source\PSoC4/BLE.c ****             privacyConfigParams.resolvingListSize = CYBLE_MAX_RESOLVABLE_DEVICES;
 342              		.loc 1 439 0
 343 007e 1C23     		movs	r3, #28
 344 0080 FB18     		adds	r3, r7, r3
 345 0082 0022     		movs	r2, #0
 346 0084 1A70     		strb	r2, [r3]
 440:Generated_Source\PSoC4/BLE.c ****         #if(CYBLE_LL_PRIVACY_FEATURE_ENABLED)
 441:Generated_Source\PSoC4/BLE.c ****             CyBle_EnablePrivacyFeature();          /* Enable LL Privacy code in stack */
 442:Generated_Source\PSoC4/BLE.c ****         #endif /* CYBLE_LL_PRIVACY_FEATURE_ENABLED */
 443:Generated_Source\PSoC4/BLE.c **** 
 444:Generated_Source\PSoC4/BLE.c ****             apiResult = CyBle_StackSetFeatureConfig(&stackConfig, &featureHeapReq);
 347              		.loc 1 444 0
 348 0086 3E23     		movs	r3, #62
 349 0088 FC18     		adds	r4, r7, r3
 350 008a 0E23     		movs	r3, #14
ARM GAS  C:\Users\cnpan\AppData\Local\Temp\ccpThEhj.s 			page 15


 351 008c FA18     		adds	r2, r7, r3
 352 008e 1023     		movs	r3, #16
 353 0090 FB18     		adds	r3, r7, r3
 354 0092 1100     		movs	r1, r2
 355 0094 1800     		movs	r0, r3
 356 0096 FFF7FEFF 		bl	CyBle_StackSetFeatureConfig
 357 009a 0300     		movs	r3, r0
 358 009c 2380     		strh	r3, [r4]
 359              	.L12:
 360              	.LBE2:
 445:Generated_Source\PSoC4/BLE.c ****             }
 446:Generated_Source\PSoC4/BLE.c ****     
 447:Generated_Source\PSoC4/BLE.c ****         if(apiResult == CYBLE_ERROR_OK)
 361              		.loc 1 447 0
 362 009e 3E23     		movs	r3, #62
 363 00a0 FB18     		adds	r3, r7, r3
 364 00a2 1B88     		ldrh	r3, [r3]
 365 00a4 002B     		cmp	r3, #0
 366 00a6 22D1     		bne	.L14
 448:Generated_Source\PSoC4/BLE.c ****         {
 449:Generated_Source\PSoC4/BLE.c ****         
 450:Generated_Source\PSoC4/BLE.c ****         #if(CYBLE_MODE_PROFILE)
 451:Generated_Source\PSoC4/BLE.c ****             #if(CYBLE_BONDING_REQUIREMENT == CYBLE_BONDING_YES)
 452:Generated_Source\PSoC4/BLE.c ****                 apiResult = CyBle_StackInit(&CyBle_EventHandler, cyBle_stackMemoryRam, 
 453:Generated_Source\PSoC4/BLE.c ****                     CYBLE_STACK_RAM_SIZE - CYBLE_GATT_PREPARE_WRITE_BUFF_LEN, cyBle_stackDataBuff, 
 454:Generated_Source\PSoC4/BLE.c ****                     CYBLE_STACK_APP_MIN_POOL, cyBle_flashStorage.stackFlashptr, CYBLE_STACK_FLASH_S
 455:Generated_Source\PSoC4/BLE.c ****             #else
 456:Generated_Source\PSoC4/BLE.c ****                 apiResult = CyBle_StackInit(&CyBle_EventHandler, cyBle_stackMemoryRam, 
 367              		.loc 1 456 0
 368 00a8 3E23     		movs	r3, #62
 369 00aa FC18     		adds	r4, r7, r3
 370 00ac 2823     		movs	r3, #40
 371 00ae FD18     		adds	r5, r7, r3
 372 00b0 AE23     		movs	r3, #174
 373 00b2 1A01     		lsls	r2, r3, #4
 374 00b4 1449     		ldr	r1, .L16+12
 375 00b6 1548     		ldr	r0, .L16+16
 376 00b8 0023     		movs	r3, #0
 377 00ba 0293     		str	r3, [sp, #8]
 378 00bc 0023     		movs	r3, #0
 379 00be 0193     		str	r3, [sp, #4]
 380 00c0 0523     		movs	r3, #5
 381 00c2 0093     		str	r3, [sp]
 382 00c4 2B00     		movs	r3, r5
 383 00c6 FFF7FEFF 		bl	CyBle_StackInit
 384 00ca 0300     		movs	r3, r0
 385 00cc 2380     		strh	r3, [r4]
 457:Generated_Source\PSoC4/BLE.c ****                     CYBLE_STACK_RAM_SIZE - CYBLE_GATT_PREPARE_WRITE_BUFF_LEN, cyBle_stackDataBuff, 
 458:Generated_Source\PSoC4/BLE.c ****                     CYBLE_STACK_APP_MIN_POOL, NULL, 0u);
 459:Generated_Source\PSoC4/BLE.c ****             #endif  /* CYBLE_BONDING_REQUIREMENT == CYBLE_BONDING_YES */
 460:Generated_Source\PSoC4/BLE.c ****         #else /* HCI mode */
 461:Generated_Source\PSoC4/BLE.c ****             /* The following will perform preparation to use HCI over UART or over
 462:Generated_Source\PSoC4/BLE.c ****                software. But the following fucntions will not initialize the HCI
 463:Generated_Source\PSoC4/BLE.c ****                Transport. This will be done as part of Stack initialization, so
 464:Generated_Source\PSoC4/BLE.c ****                the functions should be called prior CyBle_StackInit().
 465:Generated_Source\PSoC4/BLE.c ****             */
 466:Generated_Source\PSoC4/BLE.c ****             #if (CYBLE_HCI_TYPE == CYBLE_HCI_OVER_UART)
ARM GAS  C:\Users\cnpan\AppData\Local\Temp\ccpThEhj.s 			page 16


 467:Generated_Source\PSoC4/BLE.c ****                 CyBle_HciUartTransportEnable();
 468:Generated_Source\PSoC4/BLE.c ****             #else
 469:Generated_Source\PSoC4/BLE.c ****                 CyBle_HciSoftTransportEnable();
 470:Generated_Source\PSoC4/BLE.c ****             #endif /* (CYBLE_HCI_TYPE == CYBLE_HCI_OVER_UART) */
 471:Generated_Source\PSoC4/BLE.c ****             /* This will initialize BLE stack for HCI mode operation */
 472:Generated_Source\PSoC4/BLE.c ****             apiResult = CyBle_StackInit(&CyBle_EventHandler, cyBle_stackMemoryRam, CYBLE_STACK_RAM_
 473:Generated_Source\PSoC4/BLE.c ****                 NULL, 0u, NULL, 0u);
 474:Generated_Source\PSoC4/BLE.c ****         #endif /* CYBLE_MODE_PROFILE */
 475:Generated_Source\PSoC4/BLE.c **** 
 476:Generated_Source\PSoC4/BLE.c ****             if(apiResult == CYBLE_ERROR_OK)
 386              		.loc 1 476 0
 387 00ce 3E23     		movs	r3, #62
 388 00d0 FB18     		adds	r3, r7, r3
 389 00d2 1B88     		ldrh	r3, [r3]
 390 00d4 002B     		cmp	r3, #0
 391 00d6 0AD1     		bne	.L14
 477:Generated_Source\PSoC4/BLE.c ****             {
 478:Generated_Source\PSoC4/BLE.c ****                 CyBle_SetState(CYBLE_STATE_INITIALIZING);
 392              		.loc 1 478 0
 393 00d8 0D4B     		ldr	r3, .L16+20
 394 00da 0122     		movs	r2, #1
 395 00dc 1A70     		strb	r2, [r3]
 479:Generated_Source\PSoC4/BLE.c ****                 
 480:Generated_Source\PSoC4/BLE.c ****             #if (CYBLE_GATT_ROLE_CLIENT)
 481:Generated_Source\PSoC4/BLE.c ****                 CyBle_SetClientState(CYBLE_CLIENT_STATE_DISCONNECTED);
 396              		.loc 1 481 0
 397 00de 0D4B     		ldr	r3, .L16+24
 398 00e0 0822     		movs	r2, #8
 399 00e2 1A70     		strb	r2, [r3]
 400 00e4 03E0     		b	.L14
 401              	.L11:
 482:Generated_Source\PSoC4/BLE.c ****             #endif /* CYBLE_GATT_ROLE_CLIENT */
 483:Generated_Source\PSoC4/BLE.c ****                 
 484:Generated_Source\PSoC4/BLE.c ****             #if(CYBLE_GATT_ROLE_SERVER)
 485:Generated_Source\PSoC4/BLE.c ****                 apiResult = CyBle_GattsDbRegister(cyBle_gattDB, CYBLE_GATT_DB_INDEX_COUNT, CYBLE_GA
 486:Generated_Source\PSoC4/BLE.c ****             #endif /* CYBLE_GATT_ROLE_SERVER */
 487:Generated_Source\PSoC4/BLE.c ****             }
 488:Generated_Source\PSoC4/BLE.c ****         }
 489:Generated_Source\PSoC4/BLE.c ****     }
 490:Generated_Source\PSoC4/BLE.c ****     else
 491:Generated_Source\PSoC4/BLE.c ****     {
 492:Generated_Source\PSoC4/BLE.c ****         apiResult = CYBLE_ERROR_INVALID_PARAMETER;
 402              		.loc 1 492 0
 403 00e6 3E23     		movs	r3, #62
 404 00e8 FB18     		adds	r3, r7, r3
 405 00ea 0122     		movs	r2, #1
 406 00ec 1A80     		strh	r2, [r3]
 407              	.L14:
 493:Generated_Source\PSoC4/BLE.c ****     }
 494:Generated_Source\PSoC4/BLE.c **** 
 495:Generated_Source\PSoC4/BLE.c ****     return (apiResult);
 408              		.loc 1 495 0
 409 00ee 3E23     		movs	r3, #62
 410 00f0 FB18     		adds	r3, r7, r3
 411 00f2 1B88     		ldrh	r3, [r3]
 496:Generated_Source\PSoC4/BLE.c **** }
 412              		.loc 1 496 0
ARM GAS  C:\Users\cnpan\AppData\Local\Temp\ccpThEhj.s 			page 17


 413 00f4 1800     		movs	r0, r3
 414 00f6 BD46     		mov	sp, r7
 415 00f8 10B0     		add	sp, sp, #64
 416              		@ sp needed
 417 00fa B0BD     		pop	{r4, r5, r7, pc}
 418              	.L17:
 419              		.align	2
 420              	.L16:
 421 00fc 00000000 		.word	.LC0
 422 0100 00000000 		.word	cyBle_initVar
 423 0104 00000000 		.word	CyBle_ApplCallback
 424 0108 00000000 		.word	cyBle_stackMemoryRam
 425 010c 00000000 		.word	CyBle_EventHandler
 426 0110 00000000 		.word	cyBle_state
 427 0114 00000000 		.word	cyBle_clientState
 428              		.cfi_endproc
 429              	.LFE4:
 430              		.size	CyBle_Start, .-CyBle_Start
 431              		.section	.text.CyBle_Stop,"ax",%progbits
 432              		.align	2
 433              		.global	CyBle_Stop
 434              		.code	16
 435              		.thumb_func
 436              		.type	CyBle_Stop, %function
 437              	CyBle_Stop:
 438              	.LFB5:
 497:Generated_Source\PSoC4/BLE.c **** 
 498:Generated_Source\PSoC4/BLE.c **** 
 499:Generated_Source\PSoC4/BLE.c **** /******************************************************************************
 500:Generated_Source\PSoC4/BLE.c **** * Function Name: CyBle_Stop
 501:Generated_Source\PSoC4/BLE.c **** ***************************************************************************//**
 502:Generated_Source\PSoC4/BLE.c **** * 
 503:Generated_Source\PSoC4/BLE.c **** *  This function stops any ongoing operation in the BLE Stack and forces the 
 504:Generated_Source\PSoC4/BLE.c **** *  BLE Stack to shut down. The only function that can be called after calling
 505:Generated_Source\PSoC4/BLE.c **** *  this function is CyBle_Start(). 
 506:Generated_Source\PSoC4/BLE.c **** * 
 507:Generated_Source\PSoC4/BLE.c **** * \return
 508:Generated_Source\PSoC4/BLE.c **** *  None
 509:Generated_Source\PSoC4/BLE.c **** * 
 510:Generated_Source\PSoC4/BLE.c **** ******************************************************************************/
 511:Generated_Source\PSoC4/BLE.c **** void CyBle_Stop(void)
 512:Generated_Source\PSoC4/BLE.c **** {
 439              		.loc 1 512 0
 440              		.cfi_startproc
 441              		@ args = 0, pretend = 0, frame = 0
 442              		@ frame_needed = 1, uses_anonymous_args = 0
 443 0000 80B5     		push	{r7, lr}
 444              		.cfi_def_cfa_offset 8
 445              		.cfi_offset 7, -8
 446              		.cfi_offset 14, -4
 447 0002 00AF     		add	r7, sp, #0
 448              		.cfi_def_cfa_register 7
 513:Generated_Source\PSoC4/BLE.c ****     CyBle_Shutdown();                         /* Stop all ongoing activities */
 449              		.loc 1 513 0
 450 0004 FFF7FEFF 		bl	CyBle_Shutdown
 514:Generated_Source\PSoC4/BLE.c ****     CyBle_SetState(CYBLE_STATE_STOPPED);
 451              		.loc 1 514 0
ARM GAS  C:\Users\cnpan\AppData\Local\Temp\ccpThEhj.s 			page 18


 452 0008 024B     		ldr	r3, .L19
 453 000a 0022     		movs	r2, #0
 454 000c 1A70     		strb	r2, [r3]
 515:Generated_Source\PSoC4/BLE.c ****     #if(CYBLE_SHARING_MODE_EXPORT)
 516:Generated_Source\PSoC4/BLE.c ****         if(cyBle_stackMemoryRam != NULL)
 517:Generated_Source\PSoC4/BLE.c ****         {
 518:Generated_Source\PSoC4/BLE.c ****             free(cyBle_stackMemoryRam);
 519:Generated_Source\PSoC4/BLE.c ****         }
 520:Generated_Source\PSoC4/BLE.c ****     #endif /* CYBLE_SHARING_MODE_EXPORT */
 521:Generated_Source\PSoC4/BLE.c **** }
 455              		.loc 1 521 0
 456 000e C046     		nop
 457 0010 BD46     		mov	sp, r7
 458              		@ sp needed
 459 0012 80BD     		pop	{r7, pc}
 460              	.L20:
 461              		.align	2
 462              	.L19:
 463 0014 00000000 		.word	cyBle_state
 464              		.cfi_endproc
 465              	.LFE5:
 466              		.size	CyBle_Stop, .-CyBle_Stop
 467              		.section	.text.CyBle_GapcStartScan,"ax",%progbits
 468              		.align	2
 469              		.global	CyBle_GapcStartScan
 470              		.code	16
 471              		.thumb_func
 472              		.type	CyBle_GapcStartScan, %function
 473              	CyBle_GapcStartScan:
 474              	.LFB6:
 522:Generated_Source\PSoC4/BLE.c **** 
 523:Generated_Source\PSoC4/BLE.c **** 
 524:Generated_Source\PSoC4/BLE.c **** #if((CYBLE_GAP_ROLE_PERIPHERAL || CYBLE_GAP_ROLE_CENTRAL) && (CYBLE_BONDING_REQUIREMENT == CYBLE_BO
 525:Generated_Source\PSoC4/BLE.c **** 
 526:Generated_Source\PSoC4/BLE.c ****     
 527:Generated_Source\PSoC4/BLE.c **** /******************************************************************************
 528:Generated_Source\PSoC4/BLE.c **** * Function Name: CyBle_StoreBondingData
 529:Generated_Source\PSoC4/BLE.c **** ***************************************************************************//**
 530:Generated_Source\PSoC4/BLE.c **** * 
 531:Generated_Source\PSoC4/BLE.c **** *  This function writes the new bonding data from RAM to the dedicated Flash 
 532:Generated_Source\PSoC4/BLE.c **** *  location as defined by the component. It performs data comparing between RAM
 533:Generated_Source\PSoC4/BLE.c **** *  and Flash before writing to Flash. If there is no change between RAM and Flash
 534:Generated_Source\PSoC4/BLE.c **** *  data, then no write is performed. It writes only one flash row in one call.
 535:Generated_Source\PSoC4/BLE.c **** *  Application should keep calling this function till API return CYBLE_ERROR_OK. 
 536:Generated_Source\PSoC4/BLE.c **** *  This function is available only when Bonding requirement is selected in
 537:Generated_Source\PSoC4/BLE.c **** *  Security settings.    
 538:Generated_Source\PSoC4/BLE.c **** * 
 539:Generated_Source\PSoC4/BLE.c **** *  \param isForceWrite:  If value is set to 0, then stack will check if flash write 
 540:Generated_Source\PSoC4/BLE.c **** *                 is permissible. 
 541:Generated_Source\PSoC4/BLE.c **** *  
 542:Generated_Source\PSoC4/BLE.c **** * \return
 543:Generated_Source\PSoC4/BLE.c **** *  Return value is of type CYBLE_API_RESULT_T.
 544:Generated_Source\PSoC4/BLE.c **** *
 545:Generated_Source\PSoC4/BLE.c **** *   Errors codes                         | Description
 546:Generated_Source\PSoC4/BLE.c **** *   ----------------------------------   | ------------------------------------
 547:Generated_Source\PSoC4/BLE.c **** *   CYBLE_ERROR_OK                       | On successful operation
 548:Generated_Source\PSoC4/BLE.c **** *   CYBLE_ERROR_FLASH_WRITE_NOT_PERMITED | Flash Write is not complete
ARM GAS  C:\Users\cnpan\AppData\Local\Temp\ccpThEhj.s 			page 19


 549:Generated_Source\PSoC4/BLE.c **** *   CYBLE_ERROR_INVALID_PARAMETER        | Invalid input parameter  
 550:Generated_Source\PSoC4/BLE.c **** *   CYBLE_ERROR_FLASH_WRITE              | Error in flash Write	
 551:Generated_Source\PSoC4/BLE.c ****     
 552:Generated_Source\PSoC4/BLE.c **** *  \sideeffect
 553:Generated_Source\PSoC4/BLE.c **** *   For BLE devices with 128K of Flash memory this API will automatically 
 554:Generated_Source\PSoC4/BLE.c **** *   modify the clock settings for the device.
 555:Generated_Source\PSoC4/BLE.c **** *   Writing to flash requires changes to be done to the IMO (set to 48 MHz)
 556:Generated_Source\PSoC4/BLE.c **** *   and HFCLK (source set to IMO) settings. The configuration is restored before
 557:Generated_Source\PSoC4/BLE.c **** *   returning. This will impact the operation of most of the hardware in the
 558:Generated_Source\PSoC4/BLE.c **** *   device.
 559:Generated_Source\PSoC4/BLE.c **** * 
 560:Generated_Source\PSoC4/BLE.c **** *  \globalvars
 561:Generated_Source\PSoC4/BLE.c **** *   The cyBle_pendingFlashWrite variable is used to detect status
 562:Generated_Source\PSoC4/BLE.c **** *   of pending write to flash operation for stack data and CCCD.
 563:Generated_Source\PSoC4/BLE.c **** *   This API automatically clears pending bits after write operation complete.
 564:Generated_Source\PSoC4/BLE.c **** *     
 565:Generated_Source\PSoC4/BLE.c **** ******************************************************************************/
 566:Generated_Source\PSoC4/BLE.c **** CYBLE_API_RESULT_T CyBle_StoreBondingData(uint8 isForceWrite)
 567:Generated_Source\PSoC4/BLE.c **** {
 568:Generated_Source\PSoC4/BLE.c ****     CYBLE_API_RESULT_T apiResult = CYBLE_ERROR_OK;
 569:Generated_Source\PSoC4/BLE.c ****     
 570:Generated_Source\PSoC4/BLE.c ****     /* Store Stack data */
 571:Generated_Source\PSoC4/BLE.c ****     if((cyBle_pendingFlashWrite & CYBLE_PENDING_STACK_FLASH_WRITE_BIT) != 0u)
 572:Generated_Source\PSoC4/BLE.c ****     {
 573:Generated_Source\PSoC4/BLE.c ****         apiResult = CyBle_StoreStackData(isForceWrite);
 574:Generated_Source\PSoC4/BLE.c ****         if(apiResult == CYBLE_ERROR_OK)
 575:Generated_Source\PSoC4/BLE.c ****         {
 576:Generated_Source\PSoC4/BLE.c ****             cyBle_pendingFlashWrite &= (uint8)~CYBLE_PENDING_STACK_FLASH_WRITE_BIT;
 577:Generated_Source\PSoC4/BLE.c ****             /* Change apiResult if there are more pending data to store */
 578:Generated_Source\PSoC4/BLE.c ****             if((cyBle_pendingFlashWrite & CYBLE_PENDING_CCCD_FLASH_WRITE_BIT) != 0u)
 579:Generated_Source\PSoC4/BLE.c ****             {
 580:Generated_Source\PSoC4/BLE.c ****                 apiResult = CYBLE_ERROR_FLASH_WRITE_NOT_PERMITED;
 581:Generated_Source\PSoC4/BLE.c ****             }
 582:Generated_Source\PSoC4/BLE.c ****         }
 583:Generated_Source\PSoC4/BLE.c ****     }
 584:Generated_Source\PSoC4/BLE.c **** #if(CYBLE_GATT_DB_CCCD_COUNT != 0u)
 585:Generated_Source\PSoC4/BLE.c ****     /* Store CCCD values */
 586:Generated_Source\PSoC4/BLE.c ****     if( ((apiResult == CYBLE_ERROR_OK) || (isForceWrite != 0u)) && 
 587:Generated_Source\PSoC4/BLE.c ****         ((cyBle_pendingFlashWrite & CYBLE_PENDING_CCCD_FLASH_WRITE_BIT) != 0u) &&
 588:Generated_Source\PSoC4/BLE.c ****         (cyBle_connHandle.bdHandle <= CYBLE_GAP_MAX_BONDED_DEVICE))
 589:Generated_Source\PSoC4/BLE.c ****     {
 590:Generated_Source\PSoC4/BLE.c ****         apiResult = CyBle_StoreAppData(cyBle_attValuesCCCD, cyBle_flashStorage.attValuesCCCDFlashMe
 591:Generated_Source\PSoC4/BLE.c ****                         cyBle_connHandle.bdHandle], CYBLE_GATT_DB_CCCD_COUNT, isForceWrite);
 592:Generated_Source\PSoC4/BLE.c ****         if(apiResult == CYBLE_ERROR_OK)
 593:Generated_Source\PSoC4/BLE.c ****         {
 594:Generated_Source\PSoC4/BLE.c ****             cyBle_pendingFlashWrite &= (uint8)~CYBLE_PENDING_CCCD_FLASH_WRITE_BIT;
 595:Generated_Source\PSoC4/BLE.c ****         }
 596:Generated_Source\PSoC4/BLE.c ****     }
 597:Generated_Source\PSoC4/BLE.c ****     /* Clear requested CCCD values */
 598:Generated_Source\PSoC4/BLE.c ****     if( ((apiResult == CYBLE_ERROR_OK) || (isForceWrite != 0u)) && 
 599:Generated_Source\PSoC4/BLE.c ****         ((cyBle_pendingFlashWrite & CYBLE_PENDING_CCCD_FLASH_CLEAR_MASK) != 0u) )
 600:Generated_Source\PSoC4/BLE.c ****     {
 601:Generated_Source\PSoC4/BLE.c ****         if((cyBle_pendingFlashWrite & CYBLE_PENDING_CCCD_FLASH_CLEAR_ALL_BIT) != 0u)
 602:Generated_Source\PSoC4/BLE.c ****         {
 603:Generated_Source\PSoC4/BLE.c ****             /* Remove cccd values for all bonded devices */
 604:Generated_Source\PSoC4/BLE.c ****             uint8 defaultValuesCCCD[CYBLE_GAP_MAX_BONDED_DEVICE + 1u][CYBLE_GATT_DB_CCCD_COUNT];
 605:Generated_Source\PSoC4/BLE.c ****             
ARM GAS  C:\Users\cnpan\AppData\Local\Temp\ccpThEhj.s 			page 20


 606:Generated_Source\PSoC4/BLE.c ****             (void)memset(defaultValuesCCCD, 0, sizeof(defaultValuesCCCD));
 607:Generated_Source\PSoC4/BLE.c **** 
 608:Generated_Source\PSoC4/BLE.c ****             apiResult = CyBle_StoreAppData((uint8 *)defaultValuesCCCD, 
 609:Generated_Source\PSoC4/BLE.c ****                 (const uint8 *)cyBle_flashStorage.attValuesCCCDFlashMemory, sizeof(defaultValuesCCC
 610:Generated_Source\PSoC4/BLE.c ****             if(apiResult == CYBLE_ERROR_OK)
 611:Generated_Source\PSoC4/BLE.c ****             {
 612:Generated_Source\PSoC4/BLE.c ****                 cyBle_pendingFlashWrite &= (uint8)~CYBLE_PENDING_CCCD_FLASH_CLEAR_ALL_BIT;
 613:Generated_Source\PSoC4/BLE.c ****             }
 614:Generated_Source\PSoC4/BLE.c ****         }
 615:Generated_Source\PSoC4/BLE.c ****         else /* Remove cccd values for particular device */
 616:Generated_Source\PSoC4/BLE.c ****         {
 617:Generated_Source\PSoC4/BLE.c ****             uint8 defaultValuesCCCD[CYBLE_GATT_DB_CCCD_COUNT] = {0u};
 618:Generated_Source\PSoC4/BLE.c ****             
 619:Generated_Source\PSoC4/BLE.c ****             apiResult = CyBle_StoreAppData(defaultValuesCCCD, cyBle_flashStorage.attValuesCCCDFlash
 620:Generated_Source\PSoC4/BLE.c ****                                     cyBle_pendingFlashClearCccdHandle], CYBLE_GATT_DB_CCCD_COUNT, i
 621:Generated_Source\PSoC4/BLE.c ****             if(apiResult == CYBLE_ERROR_OK)
 622:Generated_Source\PSoC4/BLE.c ****             {
 623:Generated_Source\PSoC4/BLE.c ****                 cyBle_pendingFlashWrite &= (uint8)~CYBLE_PENDING_CCCD_FLASH_CLEAR_BIT;
 624:Generated_Source\PSoC4/BLE.c ****             }
 625:Generated_Source\PSoC4/BLE.c ****         }
 626:Generated_Source\PSoC4/BLE.c ****     }
 627:Generated_Source\PSoC4/BLE.c **** #endif /* CYBLE_GATT_DB_CCCD_COUNT != 0u */
 628:Generated_Source\PSoC4/BLE.c ****     return(apiResult);
 629:Generated_Source\PSoC4/BLE.c **** }
 630:Generated_Source\PSoC4/BLE.c **** 
 631:Generated_Source\PSoC4/BLE.c **** 
 632:Generated_Source\PSoC4/BLE.c **** /******************************************************************************
 633:Generated_Source\PSoC4/BLE.c **** * Function Name: CyBle_GapRemoveBondedDevice
 634:Generated_Source\PSoC4/BLE.c **** ***************************************************************************//**
 635:Generated_Source\PSoC4/BLE.c **** * 
 636:Generated_Source\PSoC4/BLE.c **** *  This function marks the device untrusted. It removes the bonding information
 637:Generated_Source\PSoC4/BLE.c **** *  of the device including CCCD values. This function removes device from the
 638:Generated_Source\PSoC4/BLE.c **** *  white list also when autopopulate white list with bonded devices option is
 639:Generated_Source\PSoC4/BLE.c **** *  enabled.
 640:Generated_Source\PSoC4/BLE.c **** * 
 641:Generated_Source\PSoC4/BLE.c **** *  This function is available only when Bonding requirement is selected in
 642:Generated_Source\PSoC4/BLE.c **** *  Security settings.    
 643:Generated_Source\PSoC4/BLE.c **** *
 644:Generated_Source\PSoC4/BLE.c **** *  \param bdAddr: Pointer to peer device address, of type CYBLE_GAP_BD_ADDR_T.
 645:Generated_Source\PSoC4/BLE.c **** *                 If device address is set to 0, then all devices shall be
 646:Generated_Source\PSoC4/BLE.c **** *                 removed from trusted list and white list.
 647:Generated_Source\PSoC4/BLE.c **** *
 648:Generated_Source\PSoC4/BLE.c **** * \return
 649:Generated_Source\PSoC4/BLE.c **** *  CYBLE_API_RESULT_T : Return value indicates if the function succeeded or
 650:Generated_Source\PSoC4/BLE.c **** *  failed. Following are the possible error codes.
 651:Generated_Source\PSoC4/BLE.c **** *
 652:Generated_Source\PSoC4/BLE.c **** *   Errors codes                     | Description
 653:Generated_Source\PSoC4/BLE.c **** *   ---------------------------------| ------------------------------------
 654:Generated_Source\PSoC4/BLE.c **** *   CYBLE_ERROR_OK                   | On successful operation.
 655:Generated_Source\PSoC4/BLE.c **** *   CYBLE_ERROR_INVALID_PARAMETER    | On specifying NULL as input parameter for 'bdAddr'.
 656:Generated_Source\PSoC4/BLE.c **** *   CYBLE_ERROR_INVALID_OPERATION    | Whitelist is already in use or there is pending write to fla
 657:Generated_Source\PSoC4/BLE.c **** *   CYBLE_ERROR_NO_DEVICE_ENTITY     | Device does not exist in the bond list.
 658:Generated_Source\PSoC4/BLE.c **** *
 659:Generated_Source\PSoC4/BLE.c **** *  \globalvars
 660:Generated_Source\PSoC4/BLE.c **** *   The bdHandle is set in cyBle_pendingFlashWrite variable to indicate that
 661:Generated_Source\PSoC4/BLE.c **** *   data should be stored to flash by CyBle_StoreBondingData afterwards. 
 662:Generated_Source\PSoC4/BLE.c **** *     
ARM GAS  C:\Users\cnpan\AppData\Local\Temp\ccpThEhj.s 			page 21


 663:Generated_Source\PSoC4/BLE.c **** ******************************************************************************/
 664:Generated_Source\PSoC4/BLE.c **** CYBLE_API_RESULT_T CyBle_GapRemoveBondedDevice(CYBLE_GAP_BD_ADDR_T* bdAddr)
 665:Generated_Source\PSoC4/BLE.c **** {
 666:Generated_Source\PSoC4/BLE.c ****     CYBLE_API_RESULT_T apiResult = CYBLE_ERROR_OK;
 667:Generated_Source\PSoC4/BLE.c ****     
 668:Generated_Source\PSoC4/BLE.c ****     if(cyBle_pendingFlashWrite == 0u)
 669:Generated_Source\PSoC4/BLE.c ****     {
 670:Generated_Source\PSoC4/BLE.c ****         
 671:Generated_Source\PSoC4/BLE.c ****     #if(CYBLE_GATT_DB_CCCD_COUNT != 0u)
 672:Generated_Source\PSoC4/BLE.c ****         /* Request to clear CCCD values which will be done by CyBle_StoreBondingData API */
 673:Generated_Source\PSoC4/BLE.c ****         uint8 bDevHandle;
 674:Generated_Source\PSoC4/BLE.c ****         CYBLE_GAP_BD_ADDR_T invalidBdAddr = {{0u,0u,0u,0u,0u,0u}, 0u};
 675:Generated_Source\PSoC4/BLE.c **** 
 676:Generated_Source\PSoC4/BLE.c ****         if(memcmp(((uint8 *) &(bdAddr->bdAddr)), ((uint8 *) &(invalidBdAddr.bdAddr)), CYBLE_GAP_BD_
 677:Generated_Source\PSoC4/BLE.c **** 	    {
 678:Generated_Source\PSoC4/BLE.c ****             /* Request to remove all bonded devices by cyBle_StoreBondingData API */
 679:Generated_Source\PSoC4/BLE.c ****             cyBle_pendingFlashWrite |= CYBLE_PENDING_CCCD_FLASH_CLEAR_ALL_BIT;
 680:Generated_Source\PSoC4/BLE.c ****         }
 681:Generated_Source\PSoC4/BLE.c ****         else
 682:Generated_Source\PSoC4/BLE.c ****         {
 683:Generated_Source\PSoC4/BLE.c ****             /* Get the BD handle from Address */
 684:Generated_Source\PSoC4/BLE.c ****             apiResult = CyBle_GapGetPeerBdHandle(&bDevHandle, bdAddr);
 685:Generated_Source\PSoC4/BLE.c ****             if(apiResult == CYBLE_ERROR_OK)
 686:Generated_Source\PSoC4/BLE.c ****             {
 687:Generated_Source\PSoC4/BLE.c ****                 /* Store BD handle to clear cccd values by CyBle_StoreBondingData API */
 688:Generated_Source\PSoC4/BLE.c ****                 cyBle_pendingFlashWrite |= CYBLE_PENDING_CCCD_FLASH_CLEAR_BIT;
 689:Generated_Source\PSoC4/BLE.c ****                 cyBle_pendingFlashClearCccdHandle = bDevHandle;
 690:Generated_Source\PSoC4/BLE.c ****             }
 691:Generated_Source\PSoC4/BLE.c ****         }
 692:Generated_Source\PSoC4/BLE.c ****     #endif /* CYBLE_GATT_DB_CCCD_COUNT != 0u */
 693:Generated_Source\PSoC4/BLE.c ****         if(apiResult == CYBLE_ERROR_OK)
 694:Generated_Source\PSoC4/BLE.c ****         {
 695:Generated_Source\PSoC4/BLE.c ****             apiResult = CyBle_GapRemoveDeviceFromWhiteList(bdAddr);
 696:Generated_Source\PSoC4/BLE.c ****         }
 697:Generated_Source\PSoC4/BLE.c ****     }
 698:Generated_Source\PSoC4/BLE.c ****     else
 699:Generated_Source\PSoC4/BLE.c ****     {
 700:Generated_Source\PSoC4/BLE.c ****         apiResult = CYBLE_ERROR_INVALID_OPERATION;
 701:Generated_Source\PSoC4/BLE.c ****     }
 702:Generated_Source\PSoC4/BLE.c ****     
 703:Generated_Source\PSoC4/BLE.c ****     return(apiResult);
 704:Generated_Source\PSoC4/BLE.c **** }
 705:Generated_Source\PSoC4/BLE.c **** 
 706:Generated_Source\PSoC4/BLE.c **** 
 707:Generated_Source\PSoC4/BLE.c **** #endif /* (CYBLE_GAP_ROLE_PERIPHERAL || CYBLE_GAP_ROLE_CENTRAL) && (CYBLE_BONDING_REQUIREMENT == CY
 708:Generated_Source\PSoC4/BLE.c **** 
 709:Generated_Source\PSoC4/BLE.c **** 
 710:Generated_Source\PSoC4/BLE.c **** #if(CYBLE_GAP_ROLE_PERIPHERAL || CYBLE_GAP_ROLE_BROADCASTER)
 711:Generated_Source\PSoC4/BLE.c **** 
 712:Generated_Source\PSoC4/BLE.c ****     /******************************************************************************
 713:Generated_Source\PSoC4/BLE.c ****     *  Function Name: CyBle_GappStartAdvertisement
 714:Generated_Source\PSoC4/BLE.c ****     ***************************************************************************//**
 715:Generated_Source\PSoC4/BLE.c ****     *     
 716:Generated_Source\PSoC4/BLE.c ****     *  This function is used to start the advertisement using the advertisement data 
 717:Generated_Source\PSoC4/BLE.c ****     *  set in the component customizer's GUI. After invoking this API, the device 
 718:Generated_Source\PSoC4/BLE.c ****     *  will be available for connection by the devices configured for GAP central 
 719:Generated_Source\PSoC4/BLE.c ****     *  role. It is only included if the device is configured for GAP Peripheral or 
ARM GAS  C:\Users\cnpan\AppData\Local\Temp\ccpThEhj.s 			page 22


 720:Generated_Source\PSoC4/BLE.c ****     *  GAP Peripheral + Central role.
 721:Generated_Source\PSoC4/BLE.c ****     *  
 722:Generated_Source\PSoC4/BLE.c ****     *  On start of advertisement, GAP Peripheral receives the
 723:Generated_Source\PSoC4/BLE.c ****     *  CYBLE_EVT_GAPP_ADVERTISEMENT_START_STOP event. The following events are 
 724:Generated_Source\PSoC4/BLE.c ****     *  possible on invoking this function:
 725:Generated_Source\PSoC4/BLE.c ****     *  
 726:Generated_Source\PSoC4/BLE.c ****     *  * CYBLE_EVT_GAP_DEVICE_CONNECTED - If the device connects to a GAP Central and 
 727:Generated_Source\PSoC4/BLE.c ****     *    Link Layer Privacy is disabled in component customizer.
 728:Generated_Source\PSoC4/BLE.c ****     *  * CYBLE_EVT_GAP_ENHANCE_CONN_COMPLETE - If the device connects to a GAP Central and 
 729:Generated_Source\PSoC4/BLE.c ****     *    Link Layer Privacy is enabled in component customizer.
 730:Generated_Source\PSoC4/BLE.c ****     *  * CYBLE_EVT_TIMEOUT: If no device in GAP Central mode connects to this 
 731:Generated_Source\PSoC4/BLE.c ****     *                       device within the specified timeout limit. Stack 
 732:Generated_Source\PSoC4/BLE.c ****     *                       automatically initiate stop advertising when Slow 
 733:Generated_Source\PSoC4/BLE.c ****     *                       advertising was initiated, or starts Slow advertising
 734:Generated_Source\PSoC4/BLE.c ****     *                       after Fast advertising timeout occur.
 735:Generated_Source\PSoC4/BLE.c ****     *  * CYBLE_EVT_GAPP_ADVERTISEMENT_START_STOP: If device started or stopped
 736:Generated_Source\PSoC4/BLE.c ****     *                                               advertising. Use CyBle_GetState()
 737:Generated_Source\PSoC4/BLE.c ****     *                                               to determine the state. Sequential 
 738:Generated_Source\PSoC4/BLE.c ****     *                                               advertising could be started when
 739:Generated_Source\PSoC4/BLE.c ****     *                                               CYBLE_STATE_DISCONNECTED state is
 740:Generated_Source\PSoC4/BLE.c ****     *                                               returned.
 741:Generated_Source\PSoC4/BLE.c ****     * 
 742:Generated_Source\PSoC4/BLE.c ****     *  \param advertisingIntervalType: Fast or slow advertising interval with timings
 743:Generated_Source\PSoC4/BLE.c ****     *                                 entered in Advertising settings section of the
 744:Generated_Source\PSoC4/BLE.c ****     *                                 customizer.
 745:Generated_Source\PSoC4/BLE.c ****     *  * CYBLE_ADVERTISING_FAST   0x00u
 746:Generated_Source\PSoC4/BLE.c ****     *  * CYBLE_ADVERTISING_SLOW   0x01u
 747:Generated_Source\PSoC4/BLE.c ****     *  * CYBLE_ADVERTISING_CUSTOM 0x02u
 748:Generated_Source\PSoC4/BLE.c ****     * 
 749:Generated_Source\PSoC4/BLE.c ****     * \return
 750:Generated_Source\PSoC4/BLE.c ****     *  CYBLE_API_RESULT_T : Return value indicates if the function succeeded or
 751:Generated_Source\PSoC4/BLE.c ****     *  failed. Following are the possible error codes.
 752:Generated_Source\PSoC4/BLE.c ****     * 
 753:Generated_Source\PSoC4/BLE.c ****     *   Errors codes                      |  Description
 754:Generated_Source\PSoC4/BLE.c ****     *   --------------------------------- |  --------------------------------
 755:Generated_Source\PSoC4/BLE.c ****     *   CYBLE_ERROR_OK                    |  On successful operation.
 756:Generated_Source\PSoC4/BLE.c ****     *   CYBLE_ERROR_INVALID_PARAMETER     |  On passing an invalid parameter.
 757:Generated_Source\PSoC4/BLE.c ****     *   CYBLE_ERROR_INVALID_STATE         |  On calling this API not in Disconnected state.
 758:Generated_Source\PSoC4/BLE.c ****     *
 759:Generated_Source\PSoC4/BLE.c ****     * 
 760:Generated_Source\PSoC4/BLE.c ****     *******************************************************************************/
 761:Generated_Source\PSoC4/BLE.c ****     CYBLE_API_RESULT_T CyBle_GappStartAdvertisement(uint8 advertisingIntervalType)
 762:Generated_Source\PSoC4/BLE.c ****     {
 763:Generated_Source\PSoC4/BLE.c ****         CYBLE_API_RESULT_T apiResult;
 764:Generated_Source\PSoC4/BLE.c ****         
 765:Generated_Source\PSoC4/BLE.c ****         if(advertisingIntervalType > CYBLE_ADVERTISING_CUSTOM)
 766:Generated_Source\PSoC4/BLE.c ****         {
 767:Generated_Source\PSoC4/BLE.c ****             apiResult = CYBLE_ERROR_INVALID_PARAMETER;
 768:Generated_Source\PSoC4/BLE.c ****         }
 769:Generated_Source\PSoC4/BLE.c ****         else if((CYBLE_STATE_DISCONNECTED == CyBle_GetState()) && ((cyBle_eventHandlerFlag & CYBLE_
 770:Generated_Source\PSoC4/BLE.c ****         {   
 771:Generated_Source\PSoC4/BLE.c ****             if(advertisingIntervalType == CYBLE_ADVERTISING_FAST)
 772:Generated_Source\PSoC4/BLE.c ****             {
 773:Generated_Source\PSoC4/BLE.c ****                 cyBle_discoveryModeInfo.advTo = CYBLE_FAST_ADV_TIMEOUT;
 774:Generated_Source\PSoC4/BLE.c ****                 cyBle_discoveryModeInfo.advParam->advIntvMin = CYBLE_FAST_ADV_INT_MIN;
 775:Generated_Source\PSoC4/BLE.c ****                 cyBle_discoveryModeInfo.advParam->advIntvMax = CYBLE_FAST_ADV_INT_MAX;
 776:Generated_Source\PSoC4/BLE.c ****             }
ARM GAS  C:\Users\cnpan\AppData\Local\Temp\ccpThEhj.s 			page 23


 777:Generated_Source\PSoC4/BLE.c ****             else if(advertisingIntervalType == CYBLE_ADVERTISING_SLOW)
 778:Generated_Source\PSoC4/BLE.c ****             {
 779:Generated_Source\PSoC4/BLE.c ****                 cyBle_discoveryModeInfo.advTo = CYBLE_SLOW_ADV_TIMEOUT;
 780:Generated_Source\PSoC4/BLE.c ****                 cyBle_discoveryModeInfo.advParam->advIntvMin = CYBLE_SLOW_ADV_INT_MIN;
 781:Generated_Source\PSoC4/BLE.c ****                 cyBle_discoveryModeInfo.advParam->advIntvMax = CYBLE_SLOW_ADV_INT_MAX;
 782:Generated_Source\PSoC4/BLE.c ****             }       
 783:Generated_Source\PSoC4/BLE.c ****             else /* Do not update advertising intervals */
 784:Generated_Source\PSoC4/BLE.c ****             {
 785:Generated_Source\PSoC4/BLE.c ****             }
 786:Generated_Source\PSoC4/BLE.c ****             cyBle_advertisingIntervalType = advertisingIntervalType;
 787:Generated_Source\PSoC4/BLE.c ****             apiResult = CyBle_GappEnterDiscoveryMode(&cyBle_discoveryModeInfo);
 788:Generated_Source\PSoC4/BLE.c ****         
 789:Generated_Source\PSoC4/BLE.c ****             if(apiResult == CYBLE_ERROR_OK)
 790:Generated_Source\PSoC4/BLE.c ****             {
 791:Generated_Source\PSoC4/BLE.c ****                 cyBle_eventHandlerFlag |= CYBLE_START_FLAG;
 792:Generated_Source\PSoC4/BLE.c ****             }
 793:Generated_Source\PSoC4/BLE.c ****         }
 794:Generated_Source\PSoC4/BLE.c ****         else
 795:Generated_Source\PSoC4/BLE.c ****         {
 796:Generated_Source\PSoC4/BLE.c ****             apiResult = CYBLE_ERROR_INVALID_STATE;
 797:Generated_Source\PSoC4/BLE.c ****         }
 798:Generated_Source\PSoC4/BLE.c **** 
 799:Generated_Source\PSoC4/BLE.c ****         return (apiResult);
 800:Generated_Source\PSoC4/BLE.c ****     }
 801:Generated_Source\PSoC4/BLE.c **** 
 802:Generated_Source\PSoC4/BLE.c ****     
 803:Generated_Source\PSoC4/BLE.c ****     /******************************************************************************
 804:Generated_Source\PSoC4/BLE.c ****     * Function Name: CyBle_GappStopAdvertisement
 805:Generated_Source\PSoC4/BLE.c ****     ***************************************************************************//**
 806:Generated_Source\PSoC4/BLE.c ****     * 
 807:Generated_Source\PSoC4/BLE.c ****     *   This function can be used to exit from discovery mode. After the execution 
 808:Generated_Source\PSoC4/BLE.c ****     *   of this function, there will no longer be any advertisements. On stopping 
 809:Generated_Source\PSoC4/BLE.c ****     *   advertising, GAP Peripheral receives CYBLE_EVT_GAPP_ADVERTISEMENT_START_STOP
 810:Generated_Source\PSoC4/BLE.c ****     *   event. It is expected that the application layer tracks the function call 
 811:Generated_Source\PSoC4/BLE.c ****     *   performed before occurrence of this event as this event can occur on making 
 812:Generated_Source\PSoC4/BLE.c ****     *   a call to Cy_BleGappStartAdvertisement(), CyBle_GappEnterDiscoveryMode(), 
 813:Generated_Source\PSoC4/BLE.c ****     *   or CyBle_GappStartAdvertisement() functions as well.
 814:Generated_Source\PSoC4/BLE.c ****     *   
 815:Generated_Source\PSoC4/BLE.c ****     *   The following event occurs on invoking this function:
 816:Generated_Source\PSoC4/BLE.c ****     *   * CYBLE_EVT_GAPP_ADVERTISEMENT_START_STOP
 817:Generated_Source\PSoC4/BLE.c ****     * 
 818:Generated_Source\PSoC4/BLE.c ****     *  \return
 819:Generated_Source\PSoC4/BLE.c ****     *   None
 820:Generated_Source\PSoC4/BLE.c ****     * 
 821:Generated_Source\PSoC4/BLE.c ****     *******************************************************************************/
 822:Generated_Source\PSoC4/BLE.c ****     void CyBle_GappStopAdvertisement(void)
 823:Generated_Source\PSoC4/BLE.c ****     {
 824:Generated_Source\PSoC4/BLE.c ****         CyBle_GappExitDiscoveryMode();
 825:Generated_Source\PSoC4/BLE.c ****         cyBle_eventHandlerFlag |= CYBLE_STOP_FLAG;
 826:Generated_Source\PSoC4/BLE.c ****     }
 827:Generated_Source\PSoC4/BLE.c ****     
 828:Generated_Source\PSoC4/BLE.c ****     
 829:Generated_Source\PSoC4/BLE.c ****     /******************************************************************************
 830:Generated_Source\PSoC4/BLE.c ****     * Function Name: CyBle_ChangeAdDeviceAddress
 831:Generated_Source\PSoC4/BLE.c ****     ***************************************************************************//**
 832:Generated_Source\PSoC4/BLE.c ****     * 
 833:Generated_Source\PSoC4/BLE.c ****     *  This API is used to set the Bluetooth device address into the advertisement 
ARM GAS  C:\Users\cnpan\AppData\Local\Temp\ccpThEhj.s 			page 24


 834:Generated_Source\PSoC4/BLE.c ****     *  or scan response data structure.
 835:Generated_Source\PSoC4/BLE.c ****     * 
 836:Generated_Source\PSoC4/BLE.c ****     *  \param bdAddr: Bluetooth Device address. The variable is of type CYBLE_GAP_BD_ADDR_T
 837:Generated_Source\PSoC4/BLE.c ****     *  \param dest: 0 - selects advertisement structure, not zero value selects scan 
 838:Generated_Source\PSoC4/BLE.c ****     *               response structure.
 839:Generated_Source\PSoC4/BLE.c ****     * 
 840:Generated_Source\PSoC4/BLE.c ****     * \return
 841:Generated_Source\PSoC4/BLE.c ****     *  None
 842:Generated_Source\PSoC4/BLE.c ****     *  
 843:Generated_Source\PSoC4/BLE.c ****     *******************************************************************************/
 844:Generated_Source\PSoC4/BLE.c ****     void CyBle_ChangeAdDeviceAddress(const CYBLE_GAP_BD_ADDR_T* bdAddr, uint8 dest)
 845:Generated_Source\PSoC4/BLE.c ****     {
 846:Generated_Source\PSoC4/BLE.c ****         uint8 i;
 847:Generated_Source\PSoC4/BLE.c ****         uint8 *destBuffer = NULL;
 848:Generated_Source\PSoC4/BLE.c ****         
 849:Generated_Source\PSoC4/BLE.c ****         if(dest == 0u)      /* Destination - advertising structure */
 850:Generated_Source\PSoC4/BLE.c ****         {
 851:Generated_Source\PSoC4/BLE.c ****             #ifdef CYBLE_ADV_PKT_INDEX_BLUETOOTH_DEVICE_ADDRESS
 852:Generated_Source\PSoC4/BLE.c ****                 destBuffer = &cyBle_discoveryData.advData[CYBLE_ADV_PKT_INDEX_BLUETOOTH_DEVICE_ADDR
 853:Generated_Source\PSoC4/BLE.c ****             #endif /* CYBLE_ADV_PKT_INDEX_BLUETOOTH_DEVICE_ADDRESS */
 854:Generated_Source\PSoC4/BLE.c ****         }
 855:Generated_Source\PSoC4/BLE.c ****         else                /* Destination - scan response structure */
 856:Generated_Source\PSoC4/BLE.c ****         {
 857:Generated_Source\PSoC4/BLE.c ****             #ifdef CYBLE_SCN_PKT_INDEX_BLUETOOTH_DEVICE_ADDRESS
 858:Generated_Source\PSoC4/BLE.c ****                 destBuffer = &cyBle_scanRspData.scanRspData[CYBLE_SCN_PKT_INDEX_BLUETOOTH_DEVICE_AD
 859:Generated_Source\PSoC4/BLE.c ****             #endif /* CYBLE_SCN_PKT_INDEX_BLUETOOTH_DEVICE_ADDRESS */    
 860:Generated_Source\PSoC4/BLE.c ****         }
 861:Generated_Source\PSoC4/BLE.c ****         
 862:Generated_Source\PSoC4/BLE.c ****         if(destBuffer != NULL)
 863:Generated_Source\PSoC4/BLE.c ****         {
 864:Generated_Source\PSoC4/BLE.c ****             /* Update Device Address type */
 865:Generated_Source\PSoC4/BLE.c ****             destBuffer[0u] = bdAddr->type;
 866:Generated_Source\PSoC4/BLE.c ****             
 867:Generated_Source\PSoC4/BLE.c ****             for(i = 0u; i < CYBLE_GAP_BD_ADDR_SIZE; i++)
 868:Generated_Source\PSoC4/BLE.c ****             {
 869:Generated_Source\PSoC4/BLE.c ****                 destBuffer[i + 1u] = bdAddr->bdAddr[i];
 870:Generated_Source\PSoC4/BLE.c ****             }
 871:Generated_Source\PSoC4/BLE.c ****         }
 872:Generated_Source\PSoC4/BLE.c ****     }
 873:Generated_Source\PSoC4/BLE.c ****   
 874:Generated_Source\PSoC4/BLE.c **** #endif /* CYBLE_GAP_ROLE_PERIPHERAL || CYBLE_GAP_ROLE_BROADCASTER */
 875:Generated_Source\PSoC4/BLE.c **** 
 876:Generated_Source\PSoC4/BLE.c **** 
 877:Generated_Source\PSoC4/BLE.c **** #if(CYBLE_GAP_ROLE_CENTRAL || CYBLE_GAP_ROLE_OBSERVER)
 878:Generated_Source\PSoC4/BLE.c **** 
 879:Generated_Source\PSoC4/BLE.c ****     /******************************************************************************
 880:Generated_Source\PSoC4/BLE.c ****     * Function Name: CyBle_GapcStartScan
 881:Generated_Source\PSoC4/BLE.c ****     ***************************************************************************//**
 882:Generated_Source\PSoC4/BLE.c ****     * 
 883:Generated_Source\PSoC4/BLE.c ****     *   This function is used for discovering GAP peripheral devices that are 
 884:Generated_Source\PSoC4/BLE.c ****     *   available for connection. It performs the scanning routine using the 
 885:Generated_Source\PSoC4/BLE.c ****     *   parameters entered in the component's customizer.
 886:Generated_Source\PSoC4/BLE.c ****     *   
 887:Generated_Source\PSoC4/BLE.c ****     *   As soon as the discovery operation starts, CYBLE_EVT_GAPC_SCAN_START_STOP 
 888:Generated_Source\PSoC4/BLE.c ****     *   event is generated. The CYBLE_EVT_GAPC_SCAN_PROGRESS_RESULT event is 
 889:Generated_Source\PSoC4/BLE.c ****     *   generated when a GAP peripheral device is located. There are three discovery
 890:Generated_Source\PSoC4/BLE.c ****     *   procedures can be selected in the customizer's GUI:
ARM GAS  C:\Users\cnpan\AppData\Local\Temp\ccpThEhj.s 			page 25


 891:Generated_Source\PSoC4/BLE.c ****     *   
 892:Generated_Source\PSoC4/BLE.c ****     *   * Observation procedure: A device performing the observer role receives only
 893:Generated_Source\PSoC4/BLE.c ****     *                            advertisement data from devices irrespective of 
 894:Generated_Source\PSoC4/BLE.c ****     *                            their discoverable mode settings. Advertisement 
 895:Generated_Source\PSoC4/BLE.c ****     *                            data received is provided by the event,      
 896:Generated_Source\PSoC4/BLE.c ****     *                            CYBLE_EVT_GAPC_SCAN_PROGRESS_RESULT. This procedure
 897:Generated_Source\PSoC4/BLE.c ****     *                            requires the scanType sub parameter to be passive
 898:Generated_Source\PSoC4/BLE.c ****     *                            scanning. 
 899:Generated_Source\PSoC4/BLE.c ****     *   
 900:Generated_Source\PSoC4/BLE.c ****     *   * Limited Discovery procedure: A device performing the limited discovery
 901:Generated_Source\PSoC4/BLE.c ****     *                                  procedure receives advertisement data and 
 902:Generated_Source\PSoC4/BLE.c ****     *                                  scan# response data from devices in the 
 903:Generated_Source\PSoC4/BLE.c ****     *                                  limited discoverable mode only. Received data
 904:Generated_Source\PSoC4/BLE.c ****     *                                  is provided by the event, 
 905:Generated_Source\PSoC4/BLE.c ****     *                                  CYBLE_EVT_GAPC_SCAN_PROGRESS_RESULT. This 
 906:Generated_Source\PSoC4/BLE.c ****     *                                  procedure requires the scanType sub-parameter 
 907:Generated_Source\PSoC4/BLE.c ****     *                                  to be active scanning.
 908:Generated_Source\PSoC4/BLE.c ****     *   
 909:Generated_Source\PSoC4/BLE.c ****     *   * General Discovery procedure: A device performing the general discovery 
 910:Generated_Source\PSoC4/BLE.c ****     *                                  procedure receives the advertisement data and
 911:Generated_Source\PSoC4/BLE.c ****     *                                  scan response data from devices in both 
 912:Generated_Source\PSoC4/BLE.c ****     *                                  limited discoverable mode and the general 
 913:Generated_Source\PSoC4/BLE.c ****     *                                  discoverable mode. Received data is provided
 914:Generated_Source\PSoC4/BLE.c ****     *                                  by the event,
 915:Generated_Source\PSoC4/BLE.c ****     *                                  CYBLE_EVT_GAPC_SCAN_PROGRESS_RESULT. This 
 916:Generated_Source\PSoC4/BLE.c ****     *                                  procedure requires the scanType sub-parameter
 917:Generated_Source\PSoC4/BLE.c ****     *                                  to be active scanning.
 918:Generated_Source\PSoC4/BLE.c ****     *   
 919:Generated_Source\PSoC4/BLE.c ****     *   Every Advertisement / Scan response packet received results in a new event, 
 920:Generated_Source\PSoC4/BLE.c ****     *   CYBLE_EVT_GAPC_SCAN_PROGRESS_RESULT.
 921:Generated_Source\PSoC4/BLE.c ****     *   If 'scanTo' sub-parameter is a non-zero value, then upon commencement of 
 922:Generated_Source\PSoC4/BLE.c ****     *   discovery procedure and elapsed time = 'scanTo', CYBLE_EVT_TIMEOUT event
 923:Generated_Source\PSoC4/BLE.c ****     *   is generated with the event parameter indicating CYBLE_GAP_SCAN_TO.
 924:Generated_Source\PSoC4/BLE.c ****     *   Possible generated events are:
 925:Generated_Source\PSoC4/BLE.c ****     *   * CYBLE_EVT_GAPC_SCAN_START_STOP: If a device started or stopped scanning. 
 926:Generated_Source\PSoC4/BLE.c ****     *                                     Use CyBle_GetState() to determine the 
 927:Generated_Source\PSoC4/BLE.c ****     *                                     state. Sequential scanning could be 
 928:Generated_Source\PSoC4/BLE.c ****     *                                     started when CYBLE_STATE_DISCONNECTED 
 929:Generated_Source\PSoC4/BLE.c ****     *                                     state is returned. 
 930:Generated_Source\PSoC4/BLE.c ****     *   * CYBLE_EVT_GAPC_SCAN_PROGRESS_RESULT 
 931:Generated_Source\PSoC4/BLE.c ****     *   * CYBLE_EVT_TIMEOUT (CYBLE_GAP_SCAN_TO)
 932:Generated_Source\PSoC4/BLE.c ****     * 
 933:Generated_Source\PSoC4/BLE.c ****     *   \param scanningIntervalType:  Fast or slow scanning interval with
 934:Generated_Source\PSoC4/BLE.c ****     *       timings entered in Scan settings section of the customizer.
 935:Generated_Source\PSoC4/BLE.c ****     * 	  * CYBLE_SCANNING_FAST   0x00u
 936:Generated_Source\PSoC4/BLE.c ****     * 	  * CYBLE_SCANNING_SLOW   0x01u
 937:Generated_Source\PSoC4/BLE.c ****     * 	  * CYBLE_SCANNING_CUSTOM 0x02u
 938:Generated_Source\PSoC4/BLE.c ****     * 
 939:Generated_Source\PSoC4/BLE.c ****     * \return
 940:Generated_Source\PSoC4/BLE.c ****     *  CYBLE_API_RESULT_T : Return value indicates if the function succeeded or
 941:Generated_Source\PSoC4/BLE.c ****     *  failed. Following are the possible error codes.
 942:Generated_Source\PSoC4/BLE.c ****     *
 943:Generated_Source\PSoC4/BLE.c ****     *   Errors codes                       | Description
 944:Generated_Source\PSoC4/BLE.c ****     *   ---------------------------------- | -----------------------------------
 945:Generated_Source\PSoC4/BLE.c ****     *   CYBLE_ERROR_OK                     | On successful operation.
 946:Generated_Source\PSoC4/BLE.c ****     *   CYBLE_ERROR_STACK_INTERNAL         | An error occurred in the BLE stack.
 947:Generated_Source\PSoC4/BLE.c ****     *   CYBLE_ERROR_INVALID_PARAMETER      | On passing an invalid parameter.
ARM GAS  C:\Users\cnpan\AppData\Local\Temp\ccpThEhj.s 			page 26


 948:Generated_Source\PSoC4/BLE.c ****     *  
 949:Generated_Source\PSoC4/BLE.c ****     *******************************************************************************/
 950:Generated_Source\PSoC4/BLE.c ****     CYBLE_API_RESULT_T CyBle_GapcStartScan(uint8 scanningIntervalType)
 951:Generated_Source\PSoC4/BLE.c ****     {
 475              		.loc 1 951 0
 476              		.cfi_startproc
 477              		@ args = 0, pretend = 0, frame = 16
 478              		@ frame_needed = 1, uses_anonymous_args = 0
 479 0000 90B5     		push	{r4, r7, lr}
 480              		.cfi_def_cfa_offset 12
 481              		.cfi_offset 4, -12
 482              		.cfi_offset 7, -8
 483              		.cfi_offset 14, -4
 484 0002 85B0     		sub	sp, sp, #20
 485              		.cfi_def_cfa_offset 32
 486 0004 00AF     		add	r7, sp, #0
 487              		.cfi_def_cfa_register 7
 488 0006 0200     		movs	r2, r0
 489 0008 FB1D     		adds	r3, r7, #7
 490 000a 1A70     		strb	r2, [r3]
 952:Generated_Source\PSoC4/BLE.c ****         CYBLE_API_RESULT_T apiResult;
 953:Generated_Source\PSoC4/BLE.c **** 
 954:Generated_Source\PSoC4/BLE.c ****         if(scanningIntervalType > CYBLE_SCANNING_CUSTOM)
 491              		.loc 1 954 0
 492 000c FB1D     		adds	r3, r7, #7
 493 000e 1B78     		ldrb	r3, [r3]
 494 0010 022B     		cmp	r3, #2
 495 0012 04D9     		bls	.L22
 955:Generated_Source\PSoC4/BLE.c ****         {
 956:Generated_Source\PSoC4/BLE.c ****             apiResult = CYBLE_ERROR_INVALID_PARAMETER;
 496              		.loc 1 956 0
 497 0014 0E23     		movs	r3, #14
 498 0016 FB18     		adds	r3, r7, r3
 499 0018 0122     		movs	r2, #1
 500 001a 1A80     		strh	r2, [r3]
 501 001c 35E0     		b	.L23
 502              	.L22:
 957:Generated_Source\PSoC4/BLE.c ****         }
 958:Generated_Source\PSoC4/BLE.c ****         else
 959:Generated_Source\PSoC4/BLE.c ****         {
 960:Generated_Source\PSoC4/BLE.c ****             if(scanningIntervalType == CYBLE_SCANNING_FAST)
 503              		.loc 1 960 0
 504 001e FB1D     		adds	r3, r7, #7
 505 0020 1B78     		ldrb	r3, [r3]
 506 0022 002B     		cmp	r3, #0
 507 0024 09D1     		bne	.L24
 961:Generated_Source\PSoC4/BLE.c ****             {
 962:Generated_Source\PSoC4/BLE.c ****                 cyBle_discoveryInfo.scanTo = CYBLE_FAST_SCAN_TIMEOUT;
 508              		.loc 1 962 0
 509 0026 1C4B     		ldr	r3, .L27
 510 0028 0022     		movs	r2, #0
 511 002a 1A81     		strh	r2, [r3, #8]
 963:Generated_Source\PSoC4/BLE.c ****                 cyBle_discoveryInfo.scanIntv = CYBLE_FAST_SCAN_INTERVAL;
 512              		.loc 1 963 0
 513 002c 1A4B     		ldr	r3, .L27
 514 002e 5022     		movs	r2, #80
 515 0030 5A80     		strh	r2, [r3, #2]
ARM GAS  C:\Users\cnpan\AppData\Local\Temp\ccpThEhj.s 			page 27


 964:Generated_Source\PSoC4/BLE.c ****                 cyBle_discoveryInfo.scanWindow = CYBLE_FAST_SCAN_WINDOW;
 516              		.loc 1 964 0
 517 0032 194B     		ldr	r3, .L27
 518 0034 0822     		movs	r2, #8
 519 0036 9A80     		strh	r2, [r3, #4]
 520 0038 0EE0     		b	.L25
 521              	.L24:
 965:Generated_Source\PSoC4/BLE.c ****             }
 966:Generated_Source\PSoC4/BLE.c ****             else if(scanningIntervalType == CYBLE_SCANNING_SLOW)
 522              		.loc 1 966 0
 523 003a FB1D     		adds	r3, r7, #7
 524 003c 1B78     		ldrb	r3, [r3]
 525 003e 012B     		cmp	r3, #1
 526 0040 0AD1     		bne	.L25
 967:Generated_Source\PSoC4/BLE.c ****             {
 968:Generated_Source\PSoC4/BLE.c ****                 cyBle_discoveryInfo.scanTo = CYBLE_SLOW_SCAN_TIMEOUT;
 527              		.loc 1 968 0
 528 0042 154B     		ldr	r3, .L27
 529 0044 9622     		movs	r2, #150
 530 0046 1A81     		strh	r2, [r3, #8]
 969:Generated_Source\PSoC4/BLE.c ****                 cyBle_discoveryInfo.scanIntv = CYBLE_SLOW_SCAN_INTERVAL;
 531              		.loc 1 969 0
 532 0048 134B     		ldr	r3, .L27
 533 004a 8022     		movs	r2, #128
 534 004c 1201     		lsls	r2, r2, #4
 535 004e 5A80     		strh	r2, [r3, #2]
 970:Generated_Source\PSoC4/BLE.c ****                 cyBle_discoveryInfo.scanWindow = CYBLE_SLOW_SCAN_WINDOW;
 536              		.loc 1 970 0
 537 0050 114B     		ldr	r3, .L27
 538 0052 E122     		movs	r2, #225
 539 0054 D200     		lsls	r2, r2, #3
 540 0056 9A80     		strh	r2, [r3, #4]
 541              	.L25:
 971:Generated_Source\PSoC4/BLE.c ****             }       
 972:Generated_Source\PSoC4/BLE.c ****             else /* Do not update scanning intervals */
 973:Generated_Source\PSoC4/BLE.c ****             {
 974:Generated_Source\PSoC4/BLE.c ****             }
 975:Generated_Source\PSoC4/BLE.c ****             
 976:Generated_Source\PSoC4/BLE.c ****             cyBle_scanningIntervalType = scanningIntervalType;
 542              		.loc 1 976 0
 543 0058 104B     		ldr	r3, .L27+4
 544 005a FA1D     		adds	r2, r7, #7
 545 005c 1278     		ldrb	r2, [r2]
 546 005e 1A70     		strb	r2, [r3]
 977:Generated_Source\PSoC4/BLE.c ****             apiResult = CyBle_GapcStartDiscovery(&cyBle_discoveryInfo);
 547              		.loc 1 977 0
 548 0060 0E23     		movs	r3, #14
 549 0062 FC18     		adds	r4, r7, r3
 550 0064 0C4B     		ldr	r3, .L27
 551 0066 1800     		movs	r0, r3
 552 0068 FFF7FEFF 		bl	CyBle_GapcStartDiscovery
 553 006c 0300     		movs	r3, r0
 554 006e 2380     		strh	r3, [r4]
 978:Generated_Source\PSoC4/BLE.c ****         
 979:Generated_Source\PSoC4/BLE.c ****             if(apiResult == CYBLE_ERROR_OK)
 555              		.loc 1 979 0
 556 0070 0E23     		movs	r3, #14
ARM GAS  C:\Users\cnpan\AppData\Local\Temp\ccpThEhj.s 			page 28


 557 0072 FB18     		adds	r3, r7, r3
 558 0074 1B88     		ldrh	r3, [r3]
 559 0076 002B     		cmp	r3, #0
 560 0078 07D1     		bne	.L23
 980:Generated_Source\PSoC4/BLE.c ****             {
 981:Generated_Source\PSoC4/BLE.c ****                 cyBle_eventHandlerFlag |= CYBLE_START_FLAG;
 561              		.loc 1 981 0
 562 007a 094B     		ldr	r3, .L27+8
 563 007c 1B78     		ldrb	r3, [r3]
 564 007e DBB2     		uxtb	r3, r3
 565 0080 0422     		movs	r2, #4
 566 0082 1343     		orrs	r3, r2
 567 0084 DAB2     		uxtb	r2, r3
 568 0086 064B     		ldr	r3, .L27+8
 569 0088 1A70     		strb	r2, [r3]
 570              	.L23:
 982:Generated_Source\PSoC4/BLE.c ****             }
 983:Generated_Source\PSoC4/BLE.c ****         }
 984:Generated_Source\PSoC4/BLE.c ****        
 985:Generated_Source\PSoC4/BLE.c ****         return (apiResult);
 571              		.loc 1 985 0
 572 008a 0E23     		movs	r3, #14
 573 008c FB18     		adds	r3, r7, r3
 574 008e 1B88     		ldrh	r3, [r3]
 986:Generated_Source\PSoC4/BLE.c ****     }
 575              		.loc 1 986 0
 576 0090 1800     		movs	r0, r3
 577 0092 BD46     		mov	sp, r7
 578 0094 05B0     		add	sp, sp, #20
 579              		@ sp needed
 580 0096 90BD     		pop	{r4, r7, pc}
 581              	.L28:
 582              		.align	2
 583              	.L27:
 584 0098 00000000 		.word	cyBle_discoveryInfo
 585 009c 00000000 		.word	cyBle_scanningIntervalType
 586 00a0 00000000 		.word	cyBle_eventHandlerFlag
 587              		.cfi_endproc
 588              	.LFE6:
 589              		.size	CyBle_GapcStartScan, .-CyBle_GapcStartScan
 590              		.section	.text.CyBle_GapcStopScan,"ax",%progbits
 591              		.align	2
 592              		.global	CyBle_GapcStopScan
 593              		.code	16
 594              		.thumb_func
 595              		.type	CyBle_GapcStopScan, %function
 596              	CyBle_GapcStopScan:
 597              	.LFB7:
 987:Generated_Source\PSoC4/BLE.c ****     
 988:Generated_Source\PSoC4/BLE.c ****     
 989:Generated_Source\PSoC4/BLE.c ****     /******************************************************************************
 990:Generated_Source\PSoC4/BLE.c ****     * Function Name: CyBle_GapcStopScan
 991:Generated_Source\PSoC4/BLE.c ****     ***************************************************************************//**
 992:Generated_Source\PSoC4/BLE.c ****     * 
 993:Generated_Source\PSoC4/BLE.c ****     *   This function used to stop the discovery of devices. On stopping discovery
 994:Generated_Source\PSoC4/BLE.c ****     *   operation, CYBLE_EVT_GAPC_SCAN_START_STOP event is generated. Application
 995:Generated_Source\PSoC4/BLE.c ****     *   layer needs to keep track of the function call made before receiving this
ARM GAS  C:\Users\cnpan\AppData\Local\Temp\ccpThEhj.s 			page 29


 996:Generated_Source\PSoC4/BLE.c ****     *   event to associate this event with either the start or stop discovery
 997:Generated_Source\PSoC4/BLE.c ****     *   function.
 998:Generated_Source\PSoC4/BLE.c ****     * 
 999:Generated_Source\PSoC4/BLE.c ****     *   Possible events generated are:
1000:Generated_Source\PSoC4/BLE.c ****     *    * CYBLE_EVT_GAPC_SCAN_START_STOP
1001:Generated_Source\PSoC4/BLE.c ****     * 
1002:Generated_Source\PSoC4/BLE.c ****     *  \return
1003:Generated_Source\PSoC4/BLE.c ****     *   None
1004:Generated_Source\PSoC4/BLE.c ****     * 
1005:Generated_Source\PSoC4/BLE.c ****     *******************************************************************************/
1006:Generated_Source\PSoC4/BLE.c ****     void CyBle_GapcStopScan(void)
1007:Generated_Source\PSoC4/BLE.c ****     {
 598              		.loc 1 1007 0
 599              		.cfi_startproc
 600              		@ args = 0, pretend = 0, frame = 0
 601              		@ frame_needed = 1, uses_anonymous_args = 0
 602 0000 80B5     		push	{r7, lr}
 603              		.cfi_def_cfa_offset 8
 604              		.cfi_offset 7, -8
 605              		.cfi_offset 14, -4
 606 0002 00AF     		add	r7, sp, #0
 607              		.cfi_def_cfa_register 7
1008:Generated_Source\PSoC4/BLE.c ****         CyBle_GapcStopDiscovery();
 608              		.loc 1 1008 0
 609 0004 FFF7FEFF 		bl	CyBle_GapcStopDiscovery
1009:Generated_Source\PSoC4/BLE.c ****         
1010:Generated_Source\PSoC4/BLE.c ****         cyBle_eventHandlerFlag |= CYBLE_STOP_FLAG;
 610              		.loc 1 1010 0
 611 0008 054B     		ldr	r3, .L30
 612 000a 1B78     		ldrb	r3, [r3]
 613 000c DBB2     		uxtb	r3, r3
 614 000e 0822     		movs	r2, #8
 615 0010 1343     		orrs	r3, r2
 616 0012 DAB2     		uxtb	r2, r3
 617 0014 024B     		ldr	r3, .L30
 618 0016 1A70     		strb	r2, [r3]
1011:Generated_Source\PSoC4/BLE.c ****     }
 619              		.loc 1 1011 0
 620 0018 C046     		nop
 621 001a BD46     		mov	sp, r7
 622              		@ sp needed
 623 001c 80BD     		pop	{r7, pc}
 624              	.L31:
 625 001e C046     		.align	2
 626              	.L30:
 627 0020 00000000 		.word	cyBle_eventHandlerFlag
 628              		.cfi_endproc
 629              	.LFE7:
 630              		.size	CyBle_GapcStopScan, .-CyBle_GapcStopScan
 631              		.section	.text.CyBle_GapcConnectDevice,"ax",%progbits
 632              		.align	2
 633              		.global	CyBle_GapcConnectDevice
 634              		.code	16
 635              		.thumb_func
 636              		.type	CyBle_GapcConnectDevice, %function
 637              	CyBle_GapcConnectDevice:
 638              	.LFB8:
ARM GAS  C:\Users\cnpan\AppData\Local\Temp\ccpThEhj.s 			page 30


1012:Generated_Source\PSoC4/BLE.c **** 
1013:Generated_Source\PSoC4/BLE.c ****     
1014:Generated_Source\PSoC4/BLE.c **** #endif /* CYBLE_GAP_ROLE_CENTRAL || CYBLE_GAP_ROLE_OBSERVER */
1015:Generated_Source\PSoC4/BLE.c **** 
1016:Generated_Source\PSoC4/BLE.c **** 
1017:Generated_Source\PSoC4/BLE.c **** #if(CYBLE_GAP_ROLE_CENTRAL)
1018:Generated_Source\PSoC4/BLE.c **** 
1019:Generated_Source\PSoC4/BLE.c ****     /******************************************************************************
1020:Generated_Source\PSoC4/BLE.c ****     * Function Name: CyBle_GapcConnectDevice
1021:Generated_Source\PSoC4/BLE.c ****     ***************************************************************************//**
1022:Generated_Source\PSoC4/BLE.c ****     * 
1023:Generated_Source\PSoC4/BLE.c ****     *  This function is used to send a connection request to the remote device with
1024:Generated_Source\PSoC4/BLE.c ****     *  the connection parameters set in the component customizer. This function needs
1025:Generated_Source\PSoC4/BLE.c ****     *  to be called only once after the target device is discovered by 
1026:Generated_Source\PSoC4/BLE.c ****     *  CyBle_GapcStartScan() and further scanning has stopped. Scanning is 
1027:Generated_Source\PSoC4/BLE.c ****     *  successfully stopped on invoking CyBle_GapcStopScan() and then receiving the
1028:Generated_Source\PSoC4/BLE.c ****     *  event CYBLE_EVT_GAPC_SCAN_START_STOP with sub-parameter 'success' = 0x01u.
1029:Generated_Source\PSoC4/BLE.c ****     *  
1030:Generated_Source\PSoC4/BLE.c ****     *  On successful connection, the following events are generated at the GAP 
1031:Generated_Source\PSoC4/BLE.c ****     *  Central device (as well as the GAP Peripheral device), in the following order.
1032:Generated_Source\PSoC4/BLE.c ****     *  * CYBLE_EVT_GATT_CONNECT_IND
1033:Generated_Source\PSoC4/BLE.c ****     *  * CYBLE_EVT_GAP_DEVICE_CONNECTED - If the device connects to a GAP Central and 
1034:Generated_Source\PSoC4/BLE.c ****     *    Link Layer Privacy is disabled in component customizer.
1035:Generated_Source\PSoC4/BLE.c ****     *  * CYBLE_EVT_GAP_ENHANCE_CONN_COMPLETE - If the device connects to a GAP Central and 
1036:Generated_Source\PSoC4/BLE.c ****     *    Link Layer Privacy is enabled in component customizer.
1037:Generated_Source\PSoC4/BLE.c ****     *  * CYBLE_EVT_GAP_DEVICE_CONNECTED
1038:Generated_Source\PSoC4/BLE.c ****     *  
1039:Generated_Source\PSoC4/BLE.c ****     *  A procedure is considered to have timed out if a connection response packet is 
1040:Generated_Source\PSoC4/BLE.c ****     *  not received within time set by cyBle_connectingTimeout global variable
1041:Generated_Source\PSoC4/BLE.c ****     *  (30 seconds by default). CYBLE_EVT_TIMEOUT event with CYBLE_GENERIC_TO parameter
1042:Generated_Source\PSoC4/BLE.c ****     *  will indicate about connection procedure timeout. Connection will automatically
1043:Generated_Source\PSoC4/BLE.c ****     *  be canceled and state will be changed to CYBLE_STATE_DISCONNECTED.
1044:Generated_Source\PSoC4/BLE.c ****     * 
1045:Generated_Source\PSoC4/BLE.c ****     *  \param address: The device address of the remote device to connect to. 
1046:Generated_Source\PSoC4/BLE.c ****     *  
1047:Generated_Source\PSoC4/BLE.c ****     * \return
1048:Generated_Source\PSoC4/BLE.c ****     *  CYBLE_API_RESULT_T : Return value indicates if the function succeeded or 
1049:Generated_Source\PSoC4/BLE.c ****     *  failed. Following are the possible error codes.
1050:Generated_Source\PSoC4/BLE.c ****     *
1051:Generated_Source\PSoC4/BLE.c ****     *   Errors codes                       | Description
1052:Generated_Source\PSoC4/BLE.c ****     *   ------------                       | -----------
1053:Generated_Source\PSoC4/BLE.c ****     *   CYBLE_ERROR_OK                     | On successful operation.
1054:Generated_Source\PSoC4/BLE.c ****     *   CYBLE_ERROR_STACK_INTERNAL         | On error occurred in the BLE stack.
1055:Generated_Source\PSoC4/BLE.c ****     *   CYBLE_ERROR_INVALID_PARAMETER      | On passing an invalid parameter.
1056:Generated_Source\PSoC4/BLE.c ****     *   CYBLE_ERROR_INVALID_STATE          | On calling this API not in Disconnected state.
1057:Generated_Source\PSoC4/BLE.c ****     *  
1058:Generated_Source\PSoC4/BLE.c ****     ******************************************************************************/
1059:Generated_Source\PSoC4/BLE.c ****     CYBLE_API_RESULT_T CyBle_GapcConnectDevice(const CYBLE_GAP_BD_ADDR_T * address)
1060:Generated_Source\PSoC4/BLE.c ****     {
 639              		.loc 1 1060 0
 640              		.cfi_startproc
 641              		@ args = 0, pretend = 0, frame = 16
 642              		@ frame_needed = 1, uses_anonymous_args = 0
 643 0000 90B5     		push	{r4, r7, lr}
 644              		.cfi_def_cfa_offset 12
 645              		.cfi_offset 4, -12
 646              		.cfi_offset 7, -8
ARM GAS  C:\Users\cnpan\AppData\Local\Temp\ccpThEhj.s 			page 31


 647              		.cfi_offset 14, -4
 648 0002 85B0     		sub	sp, sp, #20
 649              		.cfi_def_cfa_offset 32
 650 0004 00AF     		add	r7, sp, #0
 651              		.cfi_def_cfa_register 7
 652 0006 7860     		str	r0, [r7, #4]
1061:Generated_Source\PSoC4/BLE.c ****         CYBLE_API_RESULT_T apiResult;
1062:Generated_Source\PSoC4/BLE.c ****         uint8 i;
1063:Generated_Source\PSoC4/BLE.c **** 
1064:Generated_Source\PSoC4/BLE.c ****         if(CyBle_GetState() != CYBLE_STATE_DISCONNECTED)
 653              		.loc 1 1064 0
 654 0008 294B     		ldr	r3, .L39
 655 000a 1B78     		ldrb	r3, [r3]
 656 000c 052B     		cmp	r3, #5
 657 000e 05D0     		beq	.L33
1065:Generated_Source\PSoC4/BLE.c ****         {
1066:Generated_Source\PSoC4/BLE.c ****             apiResult = CYBLE_ERROR_INVALID_STATE;
 658              		.loc 1 1066 0
 659 0010 0E23     		movs	r3, #14
 660 0012 FB18     		adds	r3, r7, r3
 661 0014 0422     		movs	r2, #4
 662 0016 FF32     		adds	r2, r2, #255
 663 0018 1A80     		strh	r2, [r3]
 664 001a 41E0     		b	.L34
 665              	.L33:
1067:Generated_Source\PSoC4/BLE.c ****         }
1068:Generated_Source\PSoC4/BLE.c ****         else if(address == NULL)
 666              		.loc 1 1068 0
 667 001c 7B68     		ldr	r3, [r7, #4]
 668 001e 002B     		cmp	r3, #0
 669 0020 04D1     		bne	.L35
1069:Generated_Source\PSoC4/BLE.c ****         {
1070:Generated_Source\PSoC4/BLE.c ****             apiResult = CYBLE_ERROR_INVALID_PARAMETER;
 670              		.loc 1 1070 0
 671 0022 0E23     		movs	r3, #14
 672 0024 FB18     		adds	r3, r7, r3
 673 0026 0122     		movs	r2, #1
 674 0028 1A80     		strh	r2, [r3]
 675 002a 39E0     		b	.L34
 676              	.L35:
1071:Generated_Source\PSoC4/BLE.c ****         }
1072:Generated_Source\PSoC4/BLE.c ****         else
1073:Generated_Source\PSoC4/BLE.c ****         {
1074:Generated_Source\PSoC4/BLE.c ****             for(i = 0u; i < CYBLE_GAP_BD_ADDR_SIZE; i++)
 677              		.loc 1 1074 0
 678 002c 0D23     		movs	r3, #13
 679 002e FB18     		adds	r3, r7, r3
 680 0030 0022     		movs	r2, #0
 681 0032 1A70     		strb	r2, [r3]
 682 0034 12E0     		b	.L36
 683              	.L37:
1075:Generated_Source\PSoC4/BLE.c ****             {
1076:Generated_Source\PSoC4/BLE.c ****                 cyBle_connectionParameters.peerBdAddr[i] = address->bdAddr[i];
 684              		.loc 1 1076 0 discriminator 3
 685 0036 0D23     		movs	r3, #13
 686 0038 FB18     		adds	r3, r7, r3
 687 003a 1B78     		ldrb	r3, [r3]
ARM GAS  C:\Users\cnpan\AppData\Local\Temp\ccpThEhj.s 			page 32


 688 003c 0D22     		movs	r2, #13
 689 003e BA18     		adds	r2, r7, r2
 690 0040 1278     		ldrb	r2, [r2]
 691 0042 7968     		ldr	r1, [r7, #4]
 692 0044 895C     		ldrb	r1, [r1, r2]
 693 0046 1B4A     		ldr	r2, .L39+4
 694 0048 D318     		adds	r3, r2, r3
 695 004a 0A1C     		adds	r2, r1, #0
 696 004c 5A71     		strb	r2, [r3, #5]
1074:Generated_Source\PSoC4/BLE.c ****             {
 697              		.loc 1 1074 0 discriminator 3
 698 004e 0D23     		movs	r3, #13
 699 0050 FB18     		adds	r3, r7, r3
 700 0052 1A78     		ldrb	r2, [r3]
 701 0054 0D23     		movs	r3, #13
 702 0056 FB18     		adds	r3, r7, r3
 703 0058 0132     		adds	r2, r2, #1
 704 005a 1A70     		strb	r2, [r3]
 705              	.L36:
1074:Generated_Source\PSoC4/BLE.c ****             {
 706              		.loc 1 1074 0 is_stmt 0 discriminator 1
 707 005c 0D23     		movs	r3, #13
 708 005e FB18     		adds	r3, r7, r3
 709 0060 1B78     		ldrb	r3, [r3]
 710 0062 052B     		cmp	r3, #5
 711 0064 E7D9     		bls	.L37
1077:Generated_Source\PSoC4/BLE.c ****             }
1078:Generated_Source\PSoC4/BLE.c ****             cyBle_connectionParameters.peerAddrType = address -> type;
 712              		.loc 1 1078 0 is_stmt 1
 713 0066 7B68     		ldr	r3, [r7, #4]
 714 0068 9A79     		ldrb	r2, [r3, #6]
 715 006a 124B     		ldr	r3, .L39+4
 716 006c DA72     		strb	r2, [r3, #11]
1079:Generated_Source\PSoC4/BLE.c ****             apiResult = CyBle_GapcInitConnection(&cyBle_connectionParameters);
 717              		.loc 1 1079 0
 718 006e 0E23     		movs	r3, #14
 719 0070 FC18     		adds	r4, r7, r3
 720 0072 104B     		ldr	r3, .L39+4
 721 0074 1800     		movs	r0, r3
 722 0076 FFF7FEFF 		bl	CyBle_GapcInitConnection
 723 007a 0300     		movs	r3, r0
 724 007c 2380     		strh	r3, [r4]
1080:Generated_Source\PSoC4/BLE.c ****             
1081:Generated_Source\PSoC4/BLE.c ****             if(apiResult == CYBLE_ERROR_OK)
 725              		.loc 1 1081 0
 726 007e 0E23     		movs	r3, #14
 727 0080 FB18     		adds	r3, r7, r3
 728 0082 1B88     		ldrh	r3, [r3]
 729 0084 002B     		cmp	r3, #0
 730 0086 0BD1     		bne	.L34
1082:Generated_Source\PSoC4/BLE.c ****             {
1083:Generated_Source\PSoC4/BLE.c ****                 CyBle_SetState(CYBLE_STATE_CONNECTING);
 731              		.loc 1 1083 0
 732 0088 094B     		ldr	r3, .L39
 733 008a 0422     		movs	r2, #4
 734 008c 1A70     		strb	r2, [r3]
1084:Generated_Source\PSoC4/BLE.c ****                 if(cyBle_connectingTimeout != 0u)
ARM GAS  C:\Users\cnpan\AppData\Local\Temp\ccpThEhj.s 			page 33


 735              		.loc 1 1084 0
 736 008e 0A4B     		ldr	r3, .L39+8
 737 0090 1B88     		ldrh	r3, [r3]
 738 0092 002B     		cmp	r3, #0
 739 0094 04D0     		beq	.L34
1085:Generated_Source\PSoC4/BLE.c ****                 {
1086:Generated_Source\PSoC4/BLE.c ****                     (void)CyBle_StartTimer(cyBle_connectingTimeout);
 740              		.loc 1 1086 0
 741 0096 084B     		ldr	r3, .L39+8
 742 0098 1B88     		ldrh	r3, [r3]
 743 009a 1800     		movs	r0, r3
 744 009c FFF7FEFF 		bl	CyBle_StartTimer
 745              	.L34:
1087:Generated_Source\PSoC4/BLE.c ****                 }
1088:Generated_Source\PSoC4/BLE.c ****             }
1089:Generated_Source\PSoC4/BLE.c ****         }
1090:Generated_Source\PSoC4/BLE.c ****         return (apiResult);
 746              		.loc 1 1090 0
 747 00a0 0E23     		movs	r3, #14
 748 00a2 FB18     		adds	r3, r7, r3
 749 00a4 1B88     		ldrh	r3, [r3]
1091:Generated_Source\PSoC4/BLE.c ****     }
 750              		.loc 1 1091 0
 751 00a6 1800     		movs	r0, r3
 752 00a8 BD46     		mov	sp, r7
 753 00aa 05B0     		add	sp, sp, #20
 754              		@ sp needed
 755 00ac 90BD     		pop	{r4, r7, pc}
 756              	.L40:
 757 00ae C046     		.align	2
 758              	.L39:
 759 00b0 00000000 		.word	cyBle_state
 760 00b4 00000000 		.word	cyBle_connectionParameters
 761 00b8 00000000 		.word	cyBle_connectingTimeout
 762              		.cfi_endproc
 763              	.LFE8:
 764              		.size	CyBle_GapcConnectDevice, .-CyBle_GapcConnectDevice
 765              		.section	.text.CyBle_GapcCancelDeviceConnection,"ax",%progbits
 766              		.align	2
 767              		.global	CyBle_GapcCancelDeviceConnection
 768              		.code	16
 769              		.thumb_func
 770              		.type	CyBle_GapcCancelDeviceConnection, %function
 771              	CyBle_GapcCancelDeviceConnection:
 772              	.LFB9:
1092:Generated_Source\PSoC4/BLE.c ****     
1093:Generated_Source\PSoC4/BLE.c **** 
1094:Generated_Source\PSoC4/BLE.c ****     /******************************************************************************
1095:Generated_Source\PSoC4/BLE.c ****     * Function Name: CyBle_GapcCancelDeviceConnection
1096:Generated_Source\PSoC4/BLE.c ****     ***************************************************************************//**
1097:Generated_Source\PSoC4/BLE.c ****     * 
1098:Generated_Source\PSoC4/BLE.c ****     *  This function cancels a previously initiated connection with the remote 
1099:Generated_Source\PSoC4/BLE.c ****     *  device. It is a blocking function. No event is generated on calling this 
1100:Generated_Source\PSoC4/BLE.c ****     *  function. If the devices are already connected then this function should not
1101:Generated_Source\PSoC4/BLE.c ****     *  be used. If you intend to disconnect from an existing connection, the function
1102:Generated_Source\PSoC4/BLE.c ****     *  CyBle_GapDisconnect() should be used.
1103:Generated_Source\PSoC4/BLE.c ****     * 
ARM GAS  C:\Users\cnpan\AppData\Local\Temp\ccpThEhj.s 			page 34


1104:Generated_Source\PSoC4/BLE.c ****     * \return
1105:Generated_Source\PSoC4/BLE.c ****     *  CYBLE_API_RESULT_T : Return value indicates if the function succeeded or 
1106:Generated_Source\PSoC4/BLE.c ****     *  failed. Following are the possible error codes.
1107:Generated_Source\PSoC4/BLE.c ****     *
1108:Generated_Source\PSoC4/BLE.c ****     *   Errors codes                       | Description
1109:Generated_Source\PSoC4/BLE.c ****     *   ---------------------------------- | --------------------------------------
1110:Generated_Source\PSoC4/BLE.c ****     *   CYBLE_ERROR_OK                     | On successful operation.
1111:Generated_Source\PSoC4/BLE.c ****     *   CYBLE_ERROR_STACK_INTERNAL         | An error occurred in the BLE stack.
1112:Generated_Source\PSoC4/BLE.c ****     *   CYBLE_ERROR_INVALID_STATE          | On calling this API not in Connecting state.
1113:Generated_Source\PSoC4/BLE.c ****     *  
1114:Generated_Source\PSoC4/BLE.c ****     *******************************************************************************/
1115:Generated_Source\PSoC4/BLE.c ****     CYBLE_API_RESULT_T CyBle_GapcCancelDeviceConnection(void)
1116:Generated_Source\PSoC4/BLE.c ****     {
 773              		.loc 1 1116 0
 774              		.cfi_startproc
 775              		@ args = 0, pretend = 0, frame = 8
 776              		@ frame_needed = 1, uses_anonymous_args = 0
 777 0000 90B5     		push	{r4, r7, lr}
 778              		.cfi_def_cfa_offset 12
 779              		.cfi_offset 4, -12
 780              		.cfi_offset 7, -8
 781              		.cfi_offset 14, -4
 782 0002 83B0     		sub	sp, sp, #12
 783              		.cfi_def_cfa_offset 24
 784 0004 00AF     		add	r7, sp, #0
 785              		.cfi_def_cfa_register 7
1117:Generated_Source\PSoC4/BLE.c ****         CYBLE_API_RESULT_T apiResult;
1118:Generated_Source\PSoC4/BLE.c ****         
1119:Generated_Source\PSoC4/BLE.c ****         if(CyBle_GetState() != CYBLE_STATE_CONNECTING)
 786              		.loc 1 1119 0
 787 0006 104B     		ldr	r3, .L46
 788 0008 1B78     		ldrb	r3, [r3]
 789 000a 042B     		cmp	r3, #4
 790 000c 04D0     		beq	.L42
1120:Generated_Source\PSoC4/BLE.c ****         {
1121:Generated_Source\PSoC4/BLE.c ****             apiResult = CYBLE_ERROR_INVALID_STATE;
 791              		.loc 1 1121 0
 792 000e BB1D     		adds	r3, r7, #6
 793 0010 0422     		movs	r2, #4
 794 0012 FF32     		adds	r2, r2, #255
 795 0014 1A80     		strh	r2, [r3]
 796 0016 11E0     		b	.L43
 797              	.L42:
1122:Generated_Source\PSoC4/BLE.c ****         }
1123:Generated_Source\PSoC4/BLE.c ****         else 
1124:Generated_Source\PSoC4/BLE.c ****         {
1125:Generated_Source\PSoC4/BLE.c ****             apiResult = CyBle_GapcCancelConnection();
 798              		.loc 1 1125 0
 799 0018 BC1D     		adds	r4, r7, #6
 800 001a FFF7FEFF 		bl	CyBle_GapcCancelConnection
 801 001e 0300     		movs	r3, r0
 802 0020 2380     		strh	r3, [r4]
1126:Generated_Source\PSoC4/BLE.c ****             
1127:Generated_Source\PSoC4/BLE.c ****             if(cyBle_connectingTimeout != 0u)
 803              		.loc 1 1127 0
 804 0022 0A4B     		ldr	r3, .L46+4
 805 0024 1B88     		ldrh	r3, [r3]
ARM GAS  C:\Users\cnpan\AppData\Local\Temp\ccpThEhj.s 			page 35


 806 0026 002B     		cmp	r3, #0
 807 0028 01D0     		beq	.L44
1128:Generated_Source\PSoC4/BLE.c ****             {
1129:Generated_Source\PSoC4/BLE.c ****                 (void)CyBle_StopTimer();
 808              		.loc 1 1129 0
 809 002a FFF7FEFF 		bl	CyBle_StopTimer
 810              	.L44:
1130:Generated_Source\PSoC4/BLE.c ****             }
1131:Generated_Source\PSoC4/BLE.c **** 
1132:Generated_Source\PSoC4/BLE.c ****             if(apiResult == CYBLE_ERROR_OK)
 811              		.loc 1 1132 0
 812 002e BB1D     		adds	r3, r7, #6
 813 0030 1B88     		ldrh	r3, [r3]
 814 0032 002B     		cmp	r3, #0
 815 0034 02D1     		bne	.L43
1133:Generated_Source\PSoC4/BLE.c ****             {
1134:Generated_Source\PSoC4/BLE.c ****                 CyBle_SetState(CYBLE_STATE_DISCONNECTED);
 816              		.loc 1 1134 0
 817 0036 044B     		ldr	r3, .L46
 818 0038 0522     		movs	r2, #5
 819 003a 1A70     		strb	r2, [r3]
 820              	.L43:
1135:Generated_Source\PSoC4/BLE.c ****             }
1136:Generated_Source\PSoC4/BLE.c ****         }
1137:Generated_Source\PSoC4/BLE.c ****         return (apiResult);
 821              		.loc 1 1137 0
 822 003c BB1D     		adds	r3, r7, #6
 823 003e 1B88     		ldrh	r3, [r3]
1138:Generated_Source\PSoC4/BLE.c ****     }    
 824              		.loc 1 1138 0
 825 0040 1800     		movs	r0, r3
 826 0042 BD46     		mov	sp, r7
 827 0044 03B0     		add	sp, sp, #12
 828              		@ sp needed
 829 0046 90BD     		pop	{r4, r7, pc}
 830              	.L47:
 831              		.align	2
 832              	.L46:
 833 0048 00000000 		.word	cyBle_state
 834 004c 00000000 		.word	cyBle_connectingTimeout
 835              		.cfi_endproc
 836              	.LFE9:
 837              		.size	CyBle_GapcCancelDeviceConnection, .-CyBle_GapcCancelDeviceConnection
 838              		.section	.text.CyBle_Get16ByPtr,"ax",%progbits
 839              		.align	2
 840              		.global	CyBle_Get16ByPtr
 841              		.code	16
 842              		.thumb_func
 843              		.type	CyBle_Get16ByPtr, %function
 844              	CyBle_Get16ByPtr:
 845              	.LFB10:
1139:Generated_Source\PSoC4/BLE.c **** 
1140:Generated_Source\PSoC4/BLE.c ****     
1141:Generated_Source\PSoC4/BLE.c **** #endif /* CYBLE_GAP_ROLE_CENTRAL */
1142:Generated_Source\PSoC4/BLE.c **** 
1143:Generated_Source\PSoC4/BLE.c **** 
1144:Generated_Source\PSoC4/BLE.c **** #if(CYBLE_GATT_ROLE_SERVER)
ARM GAS  C:\Users\cnpan\AppData\Local\Temp\ccpThEhj.s 			page 36


1145:Generated_Source\PSoC4/BLE.c **** 
1146:Generated_Source\PSoC4/BLE.c **** #if(CYBLE_GAP_ROLE_PERIPHERAL)
1147:Generated_Source\PSoC4/BLE.c **** 
1148:Generated_Source\PSoC4/BLE.c ****         /******************************************************************************
1149:Generated_Source\PSoC4/BLE.c ****         * Function Name: CyBle_ChangeAdLocalName
1150:Generated_Source\PSoC4/BLE.c ****         ***************************************************************************//**
1151:Generated_Source\PSoC4/BLE.c ****         *  This API is used to set the local device name in the advertisement or scan 
1152:Generated_Source\PSoC4/BLE.c ****         *  response data structure.
1153:Generated_Source\PSoC4/BLE.c ****         * 
1154:Generated_Source\PSoC4/BLE.c ****         *  \param name: The local device name string to be set in advertisement data 
1155:Generated_Source\PSoC4/BLE.c ****         *            structure.
1156:Generated_Source\PSoC4/BLE.c ****         *  \param dest: 0 - advertisement structure, not zero value selects scan response
1157:Generated_Source\PSoC4/BLE.c ****         *              structure.
1158:Generated_Source\PSoC4/BLE.c ****         * 
1159:Generated_Source\PSoC4/BLE.c ****         * \return
1160:Generated_Source\PSoC4/BLE.c ****         *  None
1161:Generated_Source\PSoC4/BLE.c ****         *  
1162:Generated_Source\PSoC4/BLE.c ****         *******************************************************************************/
1163:Generated_Source\PSoC4/BLE.c ****         static void CyBle_ChangeAdLocalName(const char8 name[], uint8 dest)
1164:Generated_Source\PSoC4/BLE.c ****         {
1165:Generated_Source\PSoC4/BLE.c ****             uint8 i;
1166:Generated_Source\PSoC4/BLE.c ****             uint8 flag = 0u;
1167:Generated_Source\PSoC4/BLE.c ****             uint8 adLength = 0u;
1168:Generated_Source\PSoC4/BLE.c ****             uint8 byteCounter = 0u;
1169:Generated_Source\PSoC4/BLE.c ****             uint8 *destBuffer;
1170:Generated_Source\PSoC4/BLE.c ****             uint8 maxLength;
1171:Generated_Source\PSoC4/BLE.c ****             
1172:Generated_Source\PSoC4/BLE.c ****             if(dest == 0u)      /* Destination - advertising structure */
1173:Generated_Source\PSoC4/BLE.c ****             {
1174:Generated_Source\PSoC4/BLE.c ****                 destBuffer = cyBle_discoveryData.advData;
1175:Generated_Source\PSoC4/BLE.c ****                 maxLength = cyBle_discoveryData.advDataLen;
1176:Generated_Source\PSoC4/BLE.c ****             }
1177:Generated_Source\PSoC4/BLE.c ****             else                /* Destination - scan response structure */
1178:Generated_Source\PSoC4/BLE.c ****             {
1179:Generated_Source\PSoC4/BLE.c ****                 destBuffer = cyBle_scanRspData.scanRspData;
1180:Generated_Source\PSoC4/BLE.c ****                 maxLength = cyBle_scanRspData.scanRspDataLen;
1181:Generated_Source\PSoC4/BLE.c ****             }
1182:Generated_Source\PSoC4/BLE.c ****             
1183:Generated_Source\PSoC4/BLE.c ****             while((byteCounter < maxLength) && (flag == 0u))
1184:Generated_Source\PSoC4/BLE.c ****             {
1185:Generated_Source\PSoC4/BLE.c ****                 adLength = destBuffer[byteCounter];
1186:Generated_Source\PSoC4/BLE.c ****                 
1187:Generated_Source\PSoC4/BLE.c ****                 if(0u != adLength)
1188:Generated_Source\PSoC4/BLE.c ****                 {
1189:Generated_Source\PSoC4/BLE.c ****                     /* Increment byte counter so it can point to AD type */
1190:Generated_Source\PSoC4/BLE.c ****                     byteCounter++;
1191:Generated_Source\PSoC4/BLE.c ****                     
1192:Generated_Source\PSoC4/BLE.c ****                     if((destBuffer[byteCounter] == CYBLE_SHORT_LOCAL_NAME) || 
1193:Generated_Source\PSoC4/BLE.c ****                        (destBuffer[byteCounter] == CYBLE_COMPLETE_LOCAL_NAME))
1194:Generated_Source\PSoC4/BLE.c ****                     {
1195:Generated_Source\PSoC4/BLE.c ****                         /* Start of the Local Name AD type was fount. Set flag and exit the loop. *
1196:Generated_Source\PSoC4/BLE.c ****                         flag = 1u;
1197:Generated_Source\PSoC4/BLE.c ****                     }
1198:Generated_Source\PSoC4/BLE.c ****                     else
1199:Generated_Source\PSoC4/BLE.c ****                     {
1200:Generated_Source\PSoC4/BLE.c ****                         byteCounter += adLength;
1201:Generated_Source\PSoC4/BLE.c ****                     }
ARM GAS  C:\Users\cnpan\AppData\Local\Temp\ccpThEhj.s 			page 37


1202:Generated_Source\PSoC4/BLE.c ****                 }
1203:Generated_Source\PSoC4/BLE.c ****                 else
1204:Generated_Source\PSoC4/BLE.c ****                 {
1205:Generated_Source\PSoC4/BLE.c ****                     /* The end of advertisement data structure was encountered though exit the loop
1206:Generated_Source\PSoC4/BLE.c ****                     break;
1207:Generated_Source\PSoC4/BLE.c ****                 }
1208:Generated_Source\PSoC4/BLE.c ****             }
1209:Generated_Source\PSoC4/BLE.c ****             
1210:Generated_Source\PSoC4/BLE.c ****             if(0u != flag)
1211:Generated_Source\PSoC4/BLE.c ****             {
1212:Generated_Source\PSoC4/BLE.c ****                 /* Reuse "adLength" to hold location of the last character of local name in 
1213:Generated_Source\PSoC4/BLE.c ****                    AD structure. */
1214:Generated_Source\PSoC4/BLE.c ****                 adLength += byteCounter;
1215:Generated_Source\PSoC4/BLE.c ****                 
1216:Generated_Source\PSoC4/BLE.c ****                 /* Increment byte counter to point to start of the local Name string */
1217:Generated_Source\PSoC4/BLE.c ****                 byteCounter++;
1218:Generated_Source\PSoC4/BLE.c ****                 
1219:Generated_Source\PSoC4/BLE.c ****                 for(i = byteCounter; ((i < (adLength)) && (CYBLE_NULL_CHARCTER != name[i - byteCoun
1220:Generated_Source\PSoC4/BLE.c ****                 {
1221:Generated_Source\PSoC4/BLE.c ****                     destBuffer[i] = (uint8)name[i - byteCounter];
1222:Generated_Source\PSoC4/BLE.c ****                 }
1223:Generated_Source\PSoC4/BLE.c ****                 
1224:Generated_Source\PSoC4/BLE.c ****                 /* This loop handles the case when new local name is shorted than old one.
1225:Generated_Source\PSoC4/BLE.c ****                    In this case all remaining characters should be null characters. */
1226:Generated_Source\PSoC4/BLE.c ****                 while(adLength > i)
1227:Generated_Source\PSoC4/BLE.c ****                 {
1228:Generated_Source\PSoC4/BLE.c ****                     /* Terminate string */
1229:Generated_Source\PSoC4/BLE.c ****                     destBuffer[i] = (uint8)CYBLE_NULL_CHARCTER;
1230:Generated_Source\PSoC4/BLE.c ****                     i++;
1231:Generated_Source\PSoC4/BLE.c ****                 }
1232:Generated_Source\PSoC4/BLE.c ****             }
1233:Generated_Source\PSoC4/BLE.c ****         }
1234:Generated_Source\PSoC4/BLE.c ****         
1235:Generated_Source\PSoC4/BLE.c **** #endif /* (CYBLE_GAP_ROLE_PERIPHERAL) */  
1236:Generated_Source\PSoC4/BLE.c ****     
1237:Generated_Source\PSoC4/BLE.c ****     
1238:Generated_Source\PSoC4/BLE.c ****     /******************************************************************************
1239:Generated_Source\PSoC4/BLE.c ****     * Function Name: CyBle_GapSetLocalName
1240:Generated_Source\PSoC4/BLE.c ****     ***************************************************************************//**
1241:Generated_Source\PSoC4/BLE.c ****     *  This API is used to set the local device name - a Characteristic of the 
1242:Generated_Source\PSoC4/BLE.c ****     *  GAP Service. If the characteristic length entered in the component customizer
1243:Generated_Source\PSoC4/BLE.c ****     *  is shorter than the string specified by the "name" parameter, the local device
1244:Generated_Source\PSoC4/BLE.c ****     *  name will be cut to the length specified in the customizer.
1245:Generated_Source\PSoC4/BLE.c ****     * 
1246:Generated_Source\PSoC4/BLE.c ****     *  \param name: The local device name string. The name string to be written as
1247:Generated_Source\PSoC4/BLE.c ****     *              the local device name. It represents a UTF-8 encoded User
1248:Generated_Source\PSoC4/BLE.c ****     *              Friendly Descriptive Name for the device. The length of the local
1249:Generated_Source\PSoC4/BLE.c ****     *              device string is entered into the component customizer and it can
1250:Generated_Source\PSoC4/BLE.c ****     *              be set to a value from 0 to 248 bytes. If the name contained in
1251:Generated_Source\PSoC4/BLE.c ****     *              the parameter is shorter than the length from the customizer, the
1252:Generated_Source\PSoC4/BLE.c ****     *              end of the name is indicated by a NULL octet (0x00).
1253:Generated_Source\PSoC4/BLE.c ****     * 
1254:Generated_Source\PSoC4/BLE.c ****     * \return
1255:Generated_Source\PSoC4/BLE.c ****     *  CYBLE_API_RESULT_T : Return value indicates if the function succeeded or 
1256:Generated_Source\PSoC4/BLE.c ****     *  failed. Following are the possible error codes.
1257:Generated_Source\PSoC4/BLE.c ****     *
1258:Generated_Source\PSoC4/BLE.c ****     *   Errors codes                       | Description
ARM GAS  C:\Users\cnpan\AppData\Local\Temp\ccpThEhj.s 			page 38


1259:Generated_Source\PSoC4/BLE.c ****     *   ------------                       | -----------
1260:Generated_Source\PSoC4/BLE.c ****     *   CYBLE_ERROR_OK                     | Function completed successfully.
1261:Generated_Source\PSoC4/BLE.c ****     *   CYBLE_ERROR_INVALID_PARAMETER      | On specifying NULL as input parameter
1262:Generated_Source\PSoC4/BLE.c ****     *  
1263:Generated_Source\PSoC4/BLE.c ****     *******************************************************************************/
1264:Generated_Source\PSoC4/BLE.c ****     CYBLE_API_RESULT_T CyBle_GapSetLocalName(const char8 name[])
1265:Generated_Source\PSoC4/BLE.c ****     {
1266:Generated_Source\PSoC4/BLE.c ****         CYBLE_API_RESULT_T apiResult = CYBLE_ERROR_OK;
1267:Generated_Source\PSoC4/BLE.c ****         uint8 i;
1268:Generated_Source\PSoC4/BLE.c ****         char8 *ptr;
1269:Generated_Source\PSoC4/BLE.c ****         uint8 charLen;
1270:Generated_Source\PSoC4/BLE.c **** 
1271:Generated_Source\PSoC4/BLE.c ****         if(NULL != name)
1272:Generated_Source\PSoC4/BLE.c ****         {
1273:Generated_Source\PSoC4/BLE.c ****             /* Get the pointer to the Device Name characteristic  */
1274:Generated_Source\PSoC4/BLE.c ****             ptr = (char8 *) CYBLE_GATT_DB_ATTR_GET_ATTR_GEN_PTR(cyBle_gaps.deviceNameCharHandle);
1275:Generated_Source\PSoC4/BLE.c **** 
1276:Generated_Source\PSoC4/BLE.c ****             /* First need to get the maximum length of the characteristic data in the GATT
1277:Generated_Source\PSoC4/BLE.c ****                 database to make sure there is enough place for the data. The length
1278:Generated_Source\PSoC4/BLE.c ****                 can't be longer than 248, so only the LSB of 16 bit of length is to
1279:Generated_Source\PSoC4/BLE.c ****                 be used. */
1280:Generated_Source\PSoC4/BLE.c ****             charLen = (uint8)CYBLE_GATT_DB_ATTR_GET_ATTR_GEN_MAX_LEN(cyBle_gaps.deviceNameCharHandl
1281:Generated_Source\PSoC4/BLE.c **** 
1282:Generated_Source\PSoC4/BLE.c ****             /* Copy name into characteristic */
1283:Generated_Source\PSoC4/BLE.c ****             for(i = 0u; ((i < charLen) && (CYBLE_NULL_CHARCTER != name[i])); i++)
1284:Generated_Source\PSoC4/BLE.c ****             {
1285:Generated_Source\PSoC4/BLE.c ****                 ptr[i] = name[i];
1286:Generated_Source\PSoC4/BLE.c ****             }
1287:Generated_Source\PSoC4/BLE.c **** 
1288:Generated_Source\PSoC4/BLE.c ****             if(i < charLen)
1289:Generated_Source\PSoC4/BLE.c ****             {
1290:Generated_Source\PSoC4/BLE.c ****                 /* Terminate string */
1291:Generated_Source\PSoC4/BLE.c ****                 ptr[i] = CYBLE_NULL_CHARCTER;
1292:Generated_Source\PSoC4/BLE.c ****             }
1293:Generated_Source\PSoC4/BLE.c ****             
1294:Generated_Source\PSoC4/BLE.c ****             /* Set new actual length */
1295:Generated_Source\PSoC4/BLE.c ****             
1296:Generated_Source\PSoC4/BLE.c ****             /* Update device name in advertising and scan response structure */
1297:Generated_Source\PSoC4/BLE.c ****             #if(CYBLE_GAP_ROLE_PERIPHERAL)
1298:Generated_Source\PSoC4/BLE.c ****                 CyBle_ChangeAdLocalName(name, 0u);
1299:Generated_Source\PSoC4/BLE.c ****                 CyBle_ChangeAdLocalName(name, 1u);
1300:Generated_Source\PSoC4/BLE.c ****             #endif /* (CYBLE_GAP_ROLE_PERIPHERAL) */
1301:Generated_Source\PSoC4/BLE.c ****         }
1302:Generated_Source\PSoC4/BLE.c ****         else
1303:Generated_Source\PSoC4/BLE.c ****         {
1304:Generated_Source\PSoC4/BLE.c ****             apiResult = CYBLE_ERROR_INVALID_PARAMETER;
1305:Generated_Source\PSoC4/BLE.c ****         }
1306:Generated_Source\PSoC4/BLE.c ****         
1307:Generated_Source\PSoC4/BLE.c ****         return(apiResult);
1308:Generated_Source\PSoC4/BLE.c ****     }
1309:Generated_Source\PSoC4/BLE.c **** 
1310:Generated_Source\PSoC4/BLE.c **** 
1311:Generated_Source\PSoC4/BLE.c ****     /******************************************************************************
1312:Generated_Source\PSoC4/BLE.c ****     * Function Name: CyBle_GapGetLocalName
1313:Generated_Source\PSoC4/BLE.c ****     ***************************************************************************//**
1314:Generated_Source\PSoC4/BLE.c ****     *  
1315:Generated_Source\PSoC4/BLE.c ****     *  This API is used to read the local device name - a Characteristic of the 
ARM GAS  C:\Users\cnpan\AppData\Local\Temp\ccpThEhj.s 			page 39


1316:Generated_Source\PSoC4/BLE.c ****     *  GAP Service.
1317:Generated_Source\PSoC4/BLE.c ****     * 
1318:Generated_Source\PSoC4/BLE.c ****     * \param name: The local device name string. Used to read the local name to the
1319:Generated_Source\PSoC4/BLE.c ****     *             given string array. It represents a UTF-8 encoded User Friendly 
1320:Generated_Source\PSoC4/BLE.c ****     *             Descriptive Name for the device. The length of the local device
1321:Generated_Source\PSoC4/BLE.c ****     *             string is entered into the component customizer and it can be set
1322:Generated_Source\PSoC4/BLE.c ****     *             to a value from 0 to 248 bytes. If the name contained in the
1323:Generated_Source\PSoC4/BLE.c ****     *             parameter is shorter than the length from the customizer, the end
1324:Generated_Source\PSoC4/BLE.c ****     *             of the name is indicated by a NULL octet (0x00).
1325:Generated_Source\PSoC4/BLE.c ****     * 
1326:Generated_Source\PSoC4/BLE.c ****     * \return
1327:Generated_Source\PSoC4/BLE.c ****     *  CYBLE_API_RESULT_T : Return value indicates if the function succeeded or 
1328:Generated_Source\PSoC4/BLE.c ****     *  failed. Following are the possible error codes.
1329:Generated_Source\PSoC4/BLE.c ****     *
1330:Generated_Source\PSoC4/BLE.c ****     *   Errors codes                       | Description
1331:Generated_Source\PSoC4/BLE.c ****     *   ------------                       | -----------
1332:Generated_Source\PSoC4/BLE.c ****     *   CYBLE_ERROR_OK                     | Function completed successfully.
1333:Generated_Source\PSoC4/BLE.c ****     *   CYBLE_ERROR_INVALID_PARAMETER      | On specifying NULL as input parameter
1334:Generated_Source\PSoC4/BLE.c ****     *
1335:Generated_Source\PSoC4/BLE.c ****     *******************************************************************************/
1336:Generated_Source\PSoC4/BLE.c ****     CYBLE_API_RESULT_T CyBle_GapGetLocalName(char8 name[])
1337:Generated_Source\PSoC4/BLE.c ****     {
1338:Generated_Source\PSoC4/BLE.c ****         CYBLE_API_RESULT_T apiResult = CYBLE_ERROR_OK;
1339:Generated_Source\PSoC4/BLE.c ****         uint8 charLen;
1340:Generated_Source\PSoC4/BLE.c ****         uint8 i;
1341:Generated_Source\PSoC4/BLE.c ****         char8 *ptr;
1342:Generated_Source\PSoC4/BLE.c **** 
1343:Generated_Source\PSoC4/BLE.c ****         if(NULL != name)
1344:Generated_Source\PSoC4/BLE.c ****         {
1345:Generated_Source\PSoC4/BLE.c ****             /* Get the pointer to the Device Name characteristic  */
1346:Generated_Source\PSoC4/BLE.c ****             ptr = (char8 *) CYBLE_GATT_DB_ATTR_GET_ATTR_GEN_PTR(cyBle_gaps.deviceNameCharHandle);
1347:Generated_Source\PSoC4/BLE.c **** 
1348:Generated_Source\PSoC4/BLE.c ****             /* First need to get the length of the characteristic data in the GATT
1349:Generated_Source\PSoC4/BLE.c ****                 database to make sure there is enough place for the data. The length
1350:Generated_Source\PSoC4/BLE.c ****                 can't be longer than 248, so only the LSB of 16 bit of length is to
1351:Generated_Source\PSoC4/BLE.c ****                 be used. */
1352:Generated_Source\PSoC4/BLE.c ****             charLen = (uint8)CYBLE_GATT_DB_ATTR_GET_ATTR_GEN_LEN(cyBle_gaps.deviceNameCharHandle);
1353:Generated_Source\PSoC4/BLE.c **** 
1354:Generated_Source\PSoC4/BLE.c ****             /* Copy name from characteristic */
1355:Generated_Source\PSoC4/BLE.c ****             for(i = 0u; ((i < charLen) && (CYBLE_NULL_CHARCTER != ptr[i])); i++)
1356:Generated_Source\PSoC4/BLE.c ****             {
1357:Generated_Source\PSoC4/BLE.c ****                 name[i] = ptr[i];
1358:Generated_Source\PSoC4/BLE.c ****             }
1359:Generated_Source\PSoC4/BLE.c **** 
1360:Generated_Source\PSoC4/BLE.c ****             /* Terminate string */
1361:Generated_Source\PSoC4/BLE.c ****             name[i] = CYBLE_NULL_CHARCTER;
1362:Generated_Source\PSoC4/BLE.c ****         }
1363:Generated_Source\PSoC4/BLE.c ****         else
1364:Generated_Source\PSoC4/BLE.c ****         {
1365:Generated_Source\PSoC4/BLE.c ****             apiResult = CYBLE_ERROR_INVALID_PARAMETER;
1366:Generated_Source\PSoC4/BLE.c ****         }
1367:Generated_Source\PSoC4/BLE.c ****         
1368:Generated_Source\PSoC4/BLE.c ****         return(apiResult);
1369:Generated_Source\PSoC4/BLE.c ****     }
1370:Generated_Source\PSoC4/BLE.c **** 
1371:Generated_Source\PSoC4/BLE.c **** #endif /* (CYBLE_GATT_ROLE_SERVER) */
1372:Generated_Source\PSoC4/BLE.c **** 
ARM GAS  C:\Users\cnpan\AppData\Local\Temp\ccpThEhj.s 			page 40


1373:Generated_Source\PSoC4/BLE.c **** 
1374:Generated_Source\PSoC4/BLE.c **** /******************************************************************************
1375:Generated_Source\PSoC4/BLE.c **** * Function Name: CyBle_Get16ByPtr
1376:Generated_Source\PSoC4/BLE.c **** ***************************************************************************//**
1377:Generated_Source\PSoC4/BLE.c **** * 
1378:Generated_Source\PSoC4/BLE.c **** *  Returns the two-bytes value by using a pointer to the LSB.
1379:Generated_Source\PSoC4/BLE.c **** * 
1380:Generated_Source\PSoC4/BLE.c **** *  \param ptr: Pointer to the LSB of two-bytes data (little endian).
1381:Generated_Source\PSoC4/BLE.c **** * 
1382:Generated_Source\PSoC4/BLE.c **** *  \return
1383:Generated_Source\PSoC4/BLE.c **** *  uint16: Two-bytes data.
1384:Generated_Source\PSoC4/BLE.c **** * 
1385:Generated_Source\PSoC4/BLE.c **** ******************************************************************************/
1386:Generated_Source\PSoC4/BLE.c **** uint16 CyBle_Get16ByPtr(const uint8 ptr[])
1387:Generated_Source\PSoC4/BLE.c **** {
 846              		.loc 1 1387 0
 847              		.cfi_startproc
 848              		@ args = 0, pretend = 0, frame = 8
 849              		@ frame_needed = 1, uses_anonymous_args = 0
 850 0000 80B5     		push	{r7, lr}
 851              		.cfi_def_cfa_offset 8
 852              		.cfi_offset 7, -8
 853              		.cfi_offset 14, -4
 854 0002 82B0     		sub	sp, sp, #8
 855              		.cfi_def_cfa_offset 16
 856 0004 00AF     		add	r7, sp, #0
 857              		.cfi_def_cfa_register 7
 858 0006 7860     		str	r0, [r7, #4]
1388:Generated_Source\PSoC4/BLE.c ****     return ((uint16) ptr[0u] | ((uint16) (((uint16) ptr[1u]) << 8u)));
 859              		.loc 1 1388 0
 860 0008 7B68     		ldr	r3, [r7, #4]
 861 000a 1B78     		ldrb	r3, [r3]
 862 000c 9AB2     		uxth	r2, r3
 863 000e 7B68     		ldr	r3, [r7, #4]
 864 0010 0133     		adds	r3, r3, #1
 865 0012 1B78     		ldrb	r3, [r3]
 866 0014 9BB2     		uxth	r3, r3
 867 0016 1B02     		lsls	r3, r3, #8
 868 0018 9BB2     		uxth	r3, r3
 869 001a 1343     		orrs	r3, r2
 870 001c 9BB2     		uxth	r3, r3
1389:Generated_Source\PSoC4/BLE.c **** }
 871              		.loc 1 1389 0
 872 001e 1800     		movs	r0, r3
 873 0020 BD46     		mov	sp, r7
 874 0022 02B0     		add	sp, sp, #8
 875              		@ sp needed
 876 0024 80BD     		pop	{r7, pc}
 877              		.cfi_endproc
 878              	.LFE10:
 879              		.size	CyBle_Get16ByPtr, .-CyBle_Get16ByPtr
 880 0026 C046     		.section	.text.CyBle_Set16ByPtr,"ax",%progbits
 881              		.align	2
 882              		.global	CyBle_Set16ByPtr
 883              		.code	16
 884              		.thumb_func
 885              		.type	CyBle_Set16ByPtr, %function
ARM GAS  C:\Users\cnpan\AppData\Local\Temp\ccpThEhj.s 			page 41


 886              	CyBle_Set16ByPtr:
 887              	.LFB11:
1390:Generated_Source\PSoC4/BLE.c **** 
1391:Generated_Source\PSoC4/BLE.c **** 
1392:Generated_Source\PSoC4/BLE.c **** /******************************************************************************
1393:Generated_Source\PSoC4/BLE.c **** * Function Name: CyBle_Set16ByPtr
1394:Generated_Source\PSoC4/BLE.c **** ***************************************************************************//**
1395:Generated_Source\PSoC4/BLE.c **** * 
1396:Generated_Source\PSoC4/BLE.c **** *  Sets the two-bytes value by using a pointer to the LSB.
1397:Generated_Source\PSoC4/BLE.c **** * 
1398:Generated_Source\PSoC4/BLE.c **** *  \param ptr:    Pointer to the LSB of two-bytes data (little endian).
1399:Generated_Source\PSoC4/BLE.c **** *  \param value:  Two-bytes data to be written.
1400:Generated_Source\PSoC4/BLE.c **** * 
1401:Generated_Source\PSoC4/BLE.c **** *  \return
1402:Generated_Source\PSoC4/BLE.c **** *  None
1403:Generated_Source\PSoC4/BLE.c **** * 
1404:Generated_Source\PSoC4/BLE.c **** ******************************************************************************/
1405:Generated_Source\PSoC4/BLE.c **** void CyBle_Set16ByPtr(uint8 ptr[], uint16 value)
1406:Generated_Source\PSoC4/BLE.c **** {
 888              		.loc 1 1406 0
 889              		.cfi_startproc
 890              		@ args = 0, pretend = 0, frame = 8
 891              		@ frame_needed = 1, uses_anonymous_args = 0
 892 0000 80B5     		push	{r7, lr}
 893              		.cfi_def_cfa_offset 8
 894              		.cfi_offset 7, -8
 895              		.cfi_offset 14, -4
 896 0002 82B0     		sub	sp, sp, #8
 897              		.cfi_def_cfa_offset 16
 898 0004 00AF     		add	r7, sp, #0
 899              		.cfi_def_cfa_register 7
 900 0006 7860     		str	r0, [r7, #4]
 901 0008 0A00     		movs	r2, r1
 902 000a BB1C     		adds	r3, r7, #2
 903 000c 1A80     		strh	r2, [r3]
1407:Generated_Source\PSoC4/BLE.c ****     ptr[0u] = (uint8) value;
 904              		.loc 1 1407 0
 905 000e BB1C     		adds	r3, r7, #2
 906 0010 1B88     		ldrh	r3, [r3]
 907 0012 DAB2     		uxtb	r2, r3
 908 0014 7B68     		ldr	r3, [r7, #4]
 909 0016 1A70     		strb	r2, [r3]
1408:Generated_Source\PSoC4/BLE.c ****     ptr[1u] = (uint8) (value >> 8u);
 910              		.loc 1 1408 0
 911 0018 7B68     		ldr	r3, [r7, #4]
 912 001a 0133     		adds	r3, r3, #1
 913 001c BA1C     		adds	r2, r7, #2
 914 001e 1288     		ldrh	r2, [r2]
 915 0020 120A     		lsrs	r2, r2, #8
 916 0022 92B2     		uxth	r2, r2
 917 0024 D2B2     		uxtb	r2, r2
 918 0026 1A70     		strb	r2, [r3]
1409:Generated_Source\PSoC4/BLE.c **** }
 919              		.loc 1 1409 0
 920 0028 C046     		nop
 921 002a BD46     		mov	sp, r7
 922 002c 02B0     		add	sp, sp, #8
ARM GAS  C:\Users\cnpan\AppData\Local\Temp\ccpThEhj.s 			page 42


 923              		@ sp needed
 924 002e 80BD     		pop	{r7, pc}
 925              		.cfi_endproc
 926              	.LFE11:
 927              		.size	CyBle_Set16ByPtr, .-CyBle_Set16ByPtr
 928              		.text
 929              	.Letext0:
 930              		.file 2 "Generated_Source\\PSoC4\\cytypes.h"
 931              		.file 3 "Generated_Source\\PSoC4\\BLE_Stack.h"
 932              		.file 4 "Generated_Source\\PSoC4\\BLE_StackGap.h"
 933              		.file 5 "Generated_Source\\PSoC4\\BLE_StackGatt.h"
 934              		.file 6 "Generated_Source\\PSoC4\\BLE.h"
 935              		.file 7 "Generated_Source\\PSoC4\\BLE_gatt.h"
 936              		.file 8 "Generated_Source\\PSoC4\\BLE_eventHandler.h"