ARM GAS  C:\Users\cnpan\AppData\Local\Temp\ccsqW0il.s 			page 1


   1              		.syntax unified
   2              		.cpu cortex-m0
   3              		.fpu softvfp
   4              		.eabi_attribute 20, 1
   5              		.eabi_attribute 21, 1
   6              		.eabi_attribute 23, 3
   7              		.eabi_attribute 24, 1
   8              		.eabi_attribute 25, 1
   9              		.eabi_attribute 26, 1
  10              		.eabi_attribute 30, 6
  11              		.eabi_attribute 34, 0
  12              		.eabi_attribute 18, 4
  13              		.thumb
  14              		.syntax unified
  15              		.file	"BLE_gatt.c"
  16              		.text
  17              	.Ltext0:
  18              		.cfi_sections	.debug_frame
  19              		.comm	cyBle_state,1,1
  20              		.comm	cyBle_clientState,1,1
  21              		.comm	cyBle_gattc,6,4
  22              		.comm	cyBle_gattcDiscoveryRange,4,4
  23              		.section	.text.CyBle_GattcStartDiscovery,"ax",%progbits
  24              		.align	2
  25              		.global	CyBle_GattcStartDiscovery
  26              		.code	16
  27              		.thumb_func
  28              		.type	CyBle_GattcStartDiscovery, %function
  29              	CyBle_GattcStartDiscovery:
  30              	.LFB2:
  31              		.file 1 "Generated_Source\\PSoC4\\BLE_gatt.c"
   1:Generated_Source\PSoC4/BLE_gatt.c **** /***************************************************************************//**
   2:Generated_Source\PSoC4/BLE_gatt.c **** * \file CYBLE_gatt.c
   3:Generated_Source\PSoC4/BLE_gatt.c **** * \version 3.30
   4:Generated_Source\PSoC4/BLE_gatt.c **** * 
   5:Generated_Source\PSoC4/BLE_gatt.c **** * \brief
   6:Generated_Source\PSoC4/BLE_gatt.c **** *  This file contains the source code for the GATT API of the BLE Component.
   7:Generated_Source\PSoC4/BLE_gatt.c **** * 
   8:Generated_Source\PSoC4/BLE_gatt.c **** ********************************************************************************
   9:Generated_Source\PSoC4/BLE_gatt.c **** * \copyright
  10:Generated_Source\PSoC4/BLE_gatt.c **** * Copyright 2014-2016, Cypress Semiconductor Corporation.  All rights reserved.
  11:Generated_Source\PSoC4/BLE_gatt.c **** * You may use this file only in accordance with the license, terms, conditions,
  12:Generated_Source\PSoC4/BLE_gatt.c **** * disclaimers, and limitations in the end user license agreement accompanying
  13:Generated_Source\PSoC4/BLE_gatt.c **** * the software package with which this file was provided.
  14:Generated_Source\PSoC4/BLE_gatt.c **** *******************************************************************************/
  15:Generated_Source\PSoC4/BLE_gatt.c **** 
  16:Generated_Source\PSoC4/BLE_gatt.c **** 
  17:Generated_Source\PSoC4/BLE_gatt.c **** #include "BLE_eventHandler.h"
  18:Generated_Source\PSoC4/BLE_gatt.c **** 
  19:Generated_Source\PSoC4/BLE_gatt.c **** 
  20:Generated_Source\PSoC4/BLE_gatt.c **** /***************************************
  21:Generated_Source\PSoC4/BLE_gatt.c **** * Global variables
  22:Generated_Source\PSoC4/BLE_gatt.c **** ***************************************/
  23:Generated_Source\PSoC4/BLE_gatt.c **** 
  24:Generated_Source\PSoC4/BLE_gatt.c **** CYBLE_STATE_T cyBle_state;
  25:Generated_Source\PSoC4/BLE_gatt.c **** 
  26:Generated_Source\PSoC4/BLE_gatt.c **** #if ((CYBLE_MODE_PROFILE) && (CYBLE_BONDING_REQUIREMENT == CYBLE_BONDING_YES))
ARM GAS  C:\Users\cnpan\AppData\Local\Temp\ccsqW0il.s 			page 2


  27:Generated_Source\PSoC4/BLE_gatt.c ****     
  28:Generated_Source\PSoC4/BLE_gatt.c **** #if(CYBLE_MODE_PROFILE)
  29:Generated_Source\PSoC4/BLE_gatt.c ****     #if defined(__ARMCC_VERSION)
  30:Generated_Source\PSoC4/BLE_gatt.c ****         CY_ALIGN(CYDEV_FLS_ROW_SIZE) const CY_BLE_FLASH_STORAGE cyBle_flashStorage CY_SECTION(".cy_
  31:Generated_Source\PSoC4/BLE_gatt.c ****     #elif defined (__GNUC__)
  32:Generated_Source\PSoC4/BLE_gatt.c ****         const CY_BLE_FLASH_STORAGE cyBle_flashStorage CY_SECTION(".cy_checksum_exclude")
  33:Generated_Source\PSoC4/BLE_gatt.c ****             CY_ALIGN(CYDEV_FLS_ROW_SIZE) =
  34:Generated_Source\PSoC4/BLE_gatt.c ****     #elif defined (__ICCARM__)
  35:Generated_Source\PSoC4/BLE_gatt.c ****         #pragma data_alignment=CY_FLASH_SIZEOF_ROW
  36:Generated_Source\PSoC4/BLE_gatt.c ****         #pragma location=".cy_checksum_exclude"
  37:Generated_Source\PSoC4/BLE_gatt.c ****         const CY_BLE_FLASH_STORAGE cyBle_flashStorage =
  38:Generated_Source\PSoC4/BLE_gatt.c ****     #endif  /* (__ARMCC_VERSION) */
  39:Generated_Source\PSoC4/BLE_gatt.c ****     {
  40:Generated_Source\PSoC4/BLE_gatt.c ****         { 0x00u, 0x00u, 0x00u, 0x00u, 0x00u, 0x00u, 0x00u, 0x00u, 0x00u, 0x00u, 0x00u, 0x00u, 0x00u
  41:Generated_Source\PSoC4/BLE_gatt.c ****         0x00u, 0x00u, 0x00u, 0x00u, 0x00u, 0x00u, 0x00u, 0x00u, 0x00u, 0x00u, 0x00u, 0x00u, 0x00u, 
  42:Generated_Source\PSoC4/BLE_gatt.c ****         0x00u, 0x00u, 0x00u, 0x00u, 0x00u, 0x00u, 0x00u, 0x00u, 0x00u, 0x00u, 0x00u, 0x00u, 0x00u, 
  43:Generated_Source\PSoC4/BLE_gatt.c ****         0x00u, 0x00u, 0x00u, 0x00u, 0x00u, 0x00u, 0x00u, 0x00u, 0x00u, 0x00u, 0x00u, 0x00u, 0x00u, 
  44:Generated_Source\PSoC4/BLE_gatt.c ****         0x00u, 0x00u, 0x00u, 0x00u, 0x00u, 0x00u, 0x00u, 0x00u, 0x00u, 0x00u, 0x00u, 0x00u, 0x00u, 
  45:Generated_Source\PSoC4/BLE_gatt.c ****         0x00u, 0x00u, 0x00u, 0x00u, 0x00u, 0x00u, 0x00u, 0x00u, 0x00u, 0x00u, 0x00u, 0x00u, 0x00u, 
  46:Generated_Source\PSoC4/BLE_gatt.c ****         0x00u, 0x00u, 0x00u, 0x00u, 0x00u, 0x00u, 0x00u, 0x00u, 0x00u, 0x00u, 0x00u, 0x00u, 0x00u, 
  47:Generated_Source\PSoC4/BLE_gatt.c ****         0x00u, 0x00u, 0x00u, 0x00u, 0x00u, 0x00u, 0x00u, 0x00u, 0x00u, 0x00u, 0x00u, 0x00u, 0x00u, 
  48:Generated_Source\PSoC4/BLE_gatt.c ****         0x00u, 0x00u, 0x00u, 0x00u, 0x00u, 0x00u, 0x00u, 0x00u, 0x00u, 0x00u, 0x00u, 0x00u, 0x00u, 
  49:Generated_Source\PSoC4/BLE_gatt.c ****         0x00u, 0x00u, 0x00u, 0x00u, 0x00u, 0x00u, 0x00u, 0x00u, 0x00u, 0x00u, 0x00u, 0x00u, 0x00u, 
  50:Generated_Source\PSoC4/BLE_gatt.c ****         0x00u, 0x00u, 0x00u, 0x00u, 0x00u, 0x00u, 0x00u, 0x00u, 0x00u, 0x00u, 0x00u, 0x00u, 0x00u, 
  51:Generated_Source\PSoC4/BLE_gatt.c ****         0x00u, 0x00u, 0x00u, 0x00u, 0x00u, 0x00u, 0x00u, 0x00u, 0x00u, 0x00u, 0x00u, 0x00u, 0x00u, 
  52:Generated_Source\PSoC4/BLE_gatt.c ****         0x00u, 0x00u, 0x00u, 0x00u, 0x00u, 0x00u, 0x00u, 0x00u, 0x00u, 0x00u, 0x00u, 0x00u, 0x00u, 
  53:Generated_Source\PSoC4/BLE_gatt.c ****         0x00u, 0x00u, 0x00u, 0x00u, 0x00u, 0x00u, 0x00u, 0x00u, 0x00u, 0x00u, 0x00u, 0x00u, 0x00u, 
  54:Generated_Source\PSoC4/BLE_gatt.c ****         0x00u, 0x00u, 0x00u, 0x00u, 0x00u, 0x00u, 0x00u, 0x00u, 0x00u, 0x00u, 0x00u, 0x00u, 0x00u, 
  55:Generated_Source\PSoC4/BLE_gatt.c ****         0x00u, 0x00u, 0x00u, 0x00u, 0x00u, 0x00u, 0x00u, 0x00u, 0x00u, 0x00u, 0x00u, 0x00u, 0x00u, 
  56:Generated_Source\PSoC4/BLE_gatt.c ****         0x00u, 0x00u, 0x00u, 0x00u, 0x00u, 0x00u, 0x00u, 0x00u, 0x00u, 0x00u, 0x00u, 0x00u, 0x00u, 
  57:Generated_Source\PSoC4/BLE_gatt.c ****         0x00u, 0x00u, 0x00u, 0x00u, 0x00u, 0x00u, 0x00u, 0x00u, 0x00u, 0x00u, 0x00u, 0x00u, 0x00u, 
  58:Generated_Source\PSoC4/BLE_gatt.c ****         0x00u, 0x00u, 0x00u, 0x00u, 0x00u, 0x00u, 0x00u, 0x00u, 0x00u, 0x00u, 0x00u, 0x00u, 0x00u, 
  59:Generated_Source\PSoC4/BLE_gatt.c ****         0x00u, 0x00u, 0x00u, 0x00u, 0x00u, 0x00u, 0x00u, 0x00u, 0x00u, 0x00u, 0x00u, 0x00u, 0x00u, 
  60:Generated_Source\PSoC4/BLE_gatt.c ****         0x00u, 0x00u, 0x00u, 0x00u, 0x00u, 0x00u, 0x00u, 0x00u, 0x00u, 0x00u, 0x00u, 0x00u, 0x00u, 
  61:Generated_Source\PSoC4/BLE_gatt.c ****         0x00u, 0x00u, 0x00u, 0x00u, 0x00u, 0x00u, 0x00u, 0x00u, 0x00u, 0x00u, 0x00u, 0x00u, 0x00u, 
  62:Generated_Source\PSoC4/BLE_gatt.c ****         0x00u, 0x00u, 0x00u, 0x00u, 0x00u, 0x00u, 0x00u, 0x00u, 0x00u, 0x00u, 0x00u, 0x00u, 0x00u, 
  63:Generated_Source\PSoC4/BLE_gatt.c ****         0x00u, 0x00u, 0x00u, 0x00u, 0x00u, 0x00u, 0x00u, 0x00u, 0x00u, 0x00u, 0x00u, 0x00u, 0x00u, 
  64:Generated_Source\PSoC4/BLE_gatt.c ****         0x00u, 0x00u, 0x00u, 0x00u, 0x00u, 0x00u, 0x00u, 0x00u, 0x00u, 0x00u, 0x00u, 0x00u, 0x00u, 
  65:Generated_Source\PSoC4/BLE_gatt.c ****         0x00u, 0x00u, 0x00u, 0x00u, 0x00u, 0x00u, 0x00u, 0x00u, 0x00u, 0x00u, 0x00u, 0x00u, 0x00u, 
  66:Generated_Source\PSoC4/BLE_gatt.c ****         0x00u, 0x00u, 0x00u, 0x00u, 0x00u, 0x00u, 0x00u, 0x00u, 0x00u, 0x00u, 0x00u, 0x00u, 0x00u, 
  67:Generated_Source\PSoC4/BLE_gatt.c ****         0x00u, 0x00u, 0x00u, 0x00u, 0x00u, 0x00u, 0x00u, 0x00u, 0x00u, 0x00u, 0x00u, 0x00u, 0x00u, 
  68:Generated_Source\PSoC4/BLE_gatt.c ****         0x00u, 0x00u, 0x00u, 0x00u, 0x00u, 0x00u, 0x00u, 0x00u, 0x00u, 0x00u, 0x00u, 0x00u, 0x00u, 
  69:Generated_Source\PSoC4/BLE_gatt.c ****         0x00u, 0x00u, 0x00u, 0x00u, 0x00u, 0x00u, 0x00u, 0x00u, 0x00u, 0x00u, 0x00u, 0x00u, 0x00u, 
  70:Generated_Source\PSoC4/BLE_gatt.c ****         0x00u, 0x00u, 0x00u, 0x00u, 0x00u, 0x00u, 0x00u, 0x00u, 0x00u, 0x00u, 0x00u, 0x00u, 0x00u, 
  71:Generated_Source\PSoC4/BLE_gatt.c ****         0x00u, 0x00u, 0x00u, 0x00u, 0x00u, 0x00u, 0x00u, 0x00u, 0x00u, 0x00u, 0x00u, 0x00u, 0x00u, 
  72:Generated_Source\PSoC4/BLE_gatt.c ****         0x00u, 0x00u, 0x00u, 0x00u, 0x00u, 0x00u, 0x00u, 0x00u, 0x00u, 0x00u, 0x00u, 0x00u, 0x00u, 
  73:Generated_Source\PSoC4/BLE_gatt.c ****         0x00u, 0x00u, 0x00u, 0x00u, 0x00u, 0x00u, 0x00u, 0x00u, 0x00u, 0x00u, 0x00u, 0x00u, 0x00u, 
  74:Generated_Source\PSoC4/BLE_gatt.c ****         0x00u, 0x00u, 0x00u, 0x00u, 0x00u, 0x00u, 0x00u, 0x00u, 0x00u, 0x00u, 0x00u, 0x00u, 0x00u, 
  75:Generated_Source\PSoC4/BLE_gatt.c ****         0x00u, 0x00u, 0x00u, 0x00u, 0x00u, 0x00u, 0x00u, 0x00u, 0x00u, 0x00u, 0x00u, 0x00u, 0x00u, 
  76:Generated_Source\PSoC4/BLE_gatt.c ****         0x00u, 0x00u, 0x00u, 0x00u, 0x00u, 0x00u, 0x00u, 0x00u, 0x00u, 0x00u, 0x00u, 0x00u, 0x00u, 
  77:Generated_Source\PSoC4/BLE_gatt.c ****         0x00u, 0x00u, 0x00u, 0x00u, 0x00u, 0x00u, 0x00u, 0x00u, 0x00u, 0x00u, 0x00u, 0x00u, 0x00u, 
  78:Generated_Source\PSoC4/BLE_gatt.c ****         0x00u, 0x00u, 0x00u, 0x00u, 0x00u, 0x00u, 0x00u, 0x00u, 0x00u, 0x00u, 0x00u, 0x00u, 0x00u, 
  79:Generated_Source\PSoC4/BLE_gatt.c ****         0x00u, 0x00u, 0x00u, 0x00u, 0x00u, 0x00u, 0x00u, 0x00u, 0x00u, 0x00u }, 
  80:Generated_Source\PSoC4/BLE_gatt.c ****         {{
  81:Generated_Source\PSoC4/BLE_gatt.c ****             0x00u
  82:Generated_Source\PSoC4/BLE_gatt.c ****         },
  83:Generated_Source\PSoC4/BLE_gatt.c ****         {
ARM GAS  C:\Users\cnpan\AppData\Local\Temp\ccsqW0il.s 			page 3


  84:Generated_Source\PSoC4/BLE_gatt.c ****             0x00u
  85:Generated_Source\PSoC4/BLE_gatt.c ****         },
  86:Generated_Source\PSoC4/BLE_gatt.c ****         {
  87:Generated_Source\PSoC4/BLE_gatt.c ****             0x00u
  88:Generated_Source\PSoC4/BLE_gatt.c ****         },
  89:Generated_Source\PSoC4/BLE_gatt.c ****         {
  90:Generated_Source\PSoC4/BLE_gatt.c ****             0x00u
  91:Generated_Source\PSoC4/BLE_gatt.c ****         },
  92:Generated_Source\PSoC4/BLE_gatt.c ****         {
  93:Generated_Source\PSoC4/BLE_gatt.c ****             0x00u
  94:Generated_Source\PSoC4/BLE_gatt.c ****         }}, 
  95:Generated_Source\PSoC4/BLE_gatt.c ****         0x00u, /* CYBLE_GATT_DB_CCCD_COUNT */ 
  96:Generated_Source\PSoC4/BLE_gatt.c ****         0x05u, /* CYBLE_GAP_MAX_BONDED_DEVICE */ 
  97:Generated_Source\PSoC4/BLE_gatt.c ****     };
  98:Generated_Source\PSoC4/BLE_gatt.c **** #endif /* (CYBLE_MODE_PROFILE) */
  99:Generated_Source\PSoC4/BLE_gatt.c **** 
 100:Generated_Source\PSoC4/BLE_gatt.c **** #endif  /* (CYBLE_MODE_PROFILE) && (CYBLE_BONDING_REQUIREMENT == CYBLE_BONDING_YES) */
 101:Generated_Source\PSoC4/BLE_gatt.c **** 
 102:Generated_Source\PSoC4/BLE_gatt.c **** #if(CYBLE_GATT_ROLE_SERVER)
 103:Generated_Source\PSoC4/BLE_gatt.c ****     
 104:Generated_Source\PSoC4/BLE_gatt.c ****     
 105:Generated_Source\PSoC4/BLE_gatt.c ****     
 106:Generated_Source\PSoC4/BLE_gatt.c ****     
 107:Generated_Source\PSoC4/BLE_gatt.c **** #if(CYBLE_GATT_DB_CCCD_COUNT != 0u)
 108:Generated_Source\PSoC4/BLE_gatt.c **** uint8 cyBle_attValuesCCCD[CYBLE_GATT_DB_CCCD_COUNT];
 109:Generated_Source\PSoC4/BLE_gatt.c **** #endif /* CYBLE_GATT_DB_CCCD_COUNT != 0u */
 110:Generated_Source\PSoC4/BLE_gatt.c **** 
 111:Generated_Source\PSoC4/BLE_gatt.c **** 
 112:Generated_Source\PSoC4/BLE_gatt.c **** 
 113:Generated_Source\PSoC4/BLE_gatt.c **** 
 114:Generated_Source\PSoC4/BLE_gatt.c **** 
 115:Generated_Source\PSoC4/BLE_gatt.c **** 
 116:Generated_Source\PSoC4/BLE_gatt.c **** #endif /* (CYBLE_GATT_ROLE_SERVER) */
 117:Generated_Source\PSoC4/BLE_gatt.c **** 
 118:Generated_Source\PSoC4/BLE_gatt.c **** #if(CYBLE_GATT_ROLE_CLIENT)
 119:Generated_Source\PSoC4/BLE_gatt.c ****     
 120:Generated_Source\PSoC4/BLE_gatt.c **** CYBLE_CLIENT_STATE_T cyBle_clientState;
 121:Generated_Source\PSoC4/BLE_gatt.c **** CYBLE_GATTC_T cyBle_gattc;
 122:Generated_Source\PSoC4/BLE_gatt.c **** CYBLE_GATT_ATTR_HANDLE_RANGE_T cyBle_gattcDiscoveryRange;
 123:Generated_Source\PSoC4/BLE_gatt.c ****     
 124:Generated_Source\PSoC4/BLE_gatt.c **** #endif /* (CYBLE_GATT_ROLE_CLIENT) */
 125:Generated_Source\PSoC4/BLE_gatt.c **** 
 126:Generated_Source\PSoC4/BLE_gatt.c **** 
 127:Generated_Source\PSoC4/BLE_gatt.c **** #if(CYBLE_GATT_ROLE_SERVER)
 128:Generated_Source\PSoC4/BLE_gatt.c **** 
 129:Generated_Source\PSoC4/BLE_gatt.c **** /****************************************************************************** 
 130:Generated_Source\PSoC4/BLE_gatt.c **** * Function Name: CyBle_GattsReInitGattDb
 131:Generated_Source\PSoC4/BLE_gatt.c **** ***************************************************************************//**
 132:Generated_Source\PSoC4/BLE_gatt.c **** * 
 133:Generated_Source\PSoC4/BLE_gatt.c **** *  Reinitializes the GATT database.
 134:Generated_Source\PSoC4/BLE_gatt.c **** * 
 135:Generated_Source\PSoC4/BLE_gatt.c **** *  \return
 136:Generated_Source\PSoC4/BLE_gatt.c **** *  CYBLE_API_RESULT_T: An API result states if the API succeeded or failed with
 137:Generated_Source\PSoC4/BLE_gatt.c **** *  error codes:
 138:Generated_Source\PSoC4/BLE_gatt.c **** 
 139:Generated_Source\PSoC4/BLE_gatt.c **** *  Errors codes                          | Description
 140:Generated_Source\PSoC4/BLE_gatt.c **** *  ------------                          | -----------
ARM GAS  C:\Users\cnpan\AppData\Local\Temp\ccsqW0il.s 			page 4


 141:Generated_Source\PSoC4/BLE_gatt.c **** *  CYBLE_ERROR_OK						 | GATT database was reinitialized successfully.
 142:Generated_Source\PSoC4/BLE_gatt.c **** *  CYBLE_ERROR_INVALID_STATE             | If the function is called in any state except CYBLE_STAT
 143:Generated_Source\PSoC4/BLE_gatt.c **** *  CYBLE_ERROR_INVALID_PARAMETER         | If the Database has zero entries or is a NULL pointer.
 144:Generated_Source\PSoC4/BLE_gatt.c **** * 
 145:Generated_Source\PSoC4/BLE_gatt.c **** ******************************************************************************/
 146:Generated_Source\PSoC4/BLE_gatt.c **** CYBLE_API_RESULT_T CyBle_GattsReInitGattDb(void)
 147:Generated_Source\PSoC4/BLE_gatt.c **** {
 148:Generated_Source\PSoC4/BLE_gatt.c ****     CYBLE_API_RESULT_T apiResult;
 149:Generated_Source\PSoC4/BLE_gatt.c ****     
 150:Generated_Source\PSoC4/BLE_gatt.c ****     if(CyBle_GetState() == CYBLE_STATE_DISCONNECTED)
 151:Generated_Source\PSoC4/BLE_gatt.c ****     {
 152:Generated_Source\PSoC4/BLE_gatt.c ****         apiResult = CyBle_GattsDbRegister(cyBle_gattDB, CYBLE_GATT_DB_INDEX_COUNT, CYBLE_GATT_DB_MA
 153:Generated_Source\PSoC4/BLE_gatt.c ****     }
 154:Generated_Source\PSoC4/BLE_gatt.c ****     else
 155:Generated_Source\PSoC4/BLE_gatt.c ****     {
 156:Generated_Source\PSoC4/BLE_gatt.c ****         apiResult = CYBLE_ERROR_INVALID_STATE;
 157:Generated_Source\PSoC4/BLE_gatt.c ****     }
 158:Generated_Source\PSoC4/BLE_gatt.c ****     
 159:Generated_Source\PSoC4/BLE_gatt.c ****     return(apiResult);
 160:Generated_Source\PSoC4/BLE_gatt.c **** }
 161:Generated_Source\PSoC4/BLE_gatt.c **** 
 162:Generated_Source\PSoC4/BLE_gatt.c **** 
 163:Generated_Source\PSoC4/BLE_gatt.c **** /****************************************************************************** 
 164:Generated_Source\PSoC4/BLE_gatt.c **** * Function Name: CyBle_GattsWriteEventHandler
 165:Generated_Source\PSoC4/BLE_gatt.c **** ***************************************************************************//**
 166:Generated_Source\PSoC4/BLE_gatt.c **** * 
 167:Generated_Source\PSoC4/BLE_gatt.c **** *  Handles the Write Request Event for GATT service.
 168:Generated_Source\PSoC4/BLE_gatt.c **** * 
 169:Generated_Source\PSoC4/BLE_gatt.c **** *  \param eventParam: The pointer to the data structure specified by the event.
 170:Generated_Source\PSoC4/BLE_gatt.c **** * 
 171:Generated_Source\PSoC4/BLE_gatt.c **** *  \return
 172:Generated_Source\PSoC4/BLE_gatt.c **** *  CYBLE_GATT_ERR_CODE_T: An API result returns one of the following status 
 173:Generated_Source\PSoC4/BLE_gatt.c **** *  values.
 174:Generated_Source\PSoC4/BLE_gatt.c **** 
 175:Generated_Source\PSoC4/BLE_gatt.c **** *  Errors codes                          | Description
 176:Generated_Source\PSoC4/BLE_gatt.c **** *  --------------------                  | -----------
 177:Generated_Source\PSoC4/BLE_gatt.c **** *  CYBLE_GATT_ERR_NONE                   | Write is successful.
 178:Generated_Source\PSoC4/BLE_gatt.c **** * 
 179:Generated_Source\PSoC4/BLE_gatt.c **** ******************************************************************************/
 180:Generated_Source\PSoC4/BLE_gatt.c **** CYBLE_GATT_ERR_CODE_T CyBle_GattsWriteEventHandler(CYBLE_GATTS_WRITE_REQ_PARAM_T *eventParam)
 181:Generated_Source\PSoC4/BLE_gatt.c **** {
 182:Generated_Source\PSoC4/BLE_gatt.c ****     CYBLE_GATT_ERR_CODE_T gattErr = CYBLE_GATT_ERR_NONE;
 183:Generated_Source\PSoC4/BLE_gatt.c ****     
 184:Generated_Source\PSoC4/BLE_gatt.c ****     /* Client Characteristic Configuration descriptor write request */
 185:Generated_Source\PSoC4/BLE_gatt.c ****     if(eventParam->handleValPair.attrHandle == cyBle_gatts.cccdHandle)
 186:Generated_Source\PSoC4/BLE_gatt.c ****     {
 187:Generated_Source\PSoC4/BLE_gatt.c ****         /* Store value to database */
 188:Generated_Source\PSoC4/BLE_gatt.c ****         gattErr = CyBle_GattsWriteAttributeValue(&eventParam->handleValPair, 0u, 
 189:Generated_Source\PSoC4/BLE_gatt.c ****                         &eventParam->connHandle, CYBLE_GATT_DB_PEER_INITIATED);
 190:Generated_Source\PSoC4/BLE_gatt.c ****         
 191:Generated_Source\PSoC4/BLE_gatt.c ****         if(gattErr == CYBLE_GATT_ERR_NONE)
 192:Generated_Source\PSoC4/BLE_gatt.c ****         {
 193:Generated_Source\PSoC4/BLE_gatt.c ****             if(CYBLE_IS_INDICATION_ENABLED_IN_PTR(eventParam->handleValPair.value.val))
 194:Generated_Source\PSoC4/BLE_gatt.c ****             {
 195:Generated_Source\PSoC4/BLE_gatt.c ****                 CyBle_ApplCallback((uint32)CYBLE_EVT_GATTS_INDICATION_ENABLED, eventParam);
 196:Generated_Source\PSoC4/BLE_gatt.c ****             }
 197:Generated_Source\PSoC4/BLE_gatt.c ****             else
ARM GAS  C:\Users\cnpan\AppData\Local\Temp\ccsqW0il.s 			page 5


 198:Generated_Source\PSoC4/BLE_gatt.c ****             {
 199:Generated_Source\PSoC4/BLE_gatt.c ****                 CyBle_ApplCallback((uint32)CYBLE_EVT_GATTS_INDICATION_DISABLED, eventParam);
 200:Generated_Source\PSoC4/BLE_gatt.c ****             }
 201:Generated_Source\PSoC4/BLE_gatt.c ****         }
 202:Generated_Source\PSoC4/BLE_gatt.c ****         cyBle_eventHandlerFlag &= (uint8)~CYBLE_CALLBACK;
 203:Generated_Source\PSoC4/BLE_gatt.c ****     }
 204:Generated_Source\PSoC4/BLE_gatt.c ****     return (gattErr);
 205:Generated_Source\PSoC4/BLE_gatt.c **** }
 206:Generated_Source\PSoC4/BLE_gatt.c **** 
 207:Generated_Source\PSoC4/BLE_gatt.c **** 
 208:Generated_Source\PSoC4/BLE_gatt.c **** #endif /* (CYBLE_GATT_ROLE_SERVER) */
 209:Generated_Source\PSoC4/BLE_gatt.c **** 
 210:Generated_Source\PSoC4/BLE_gatt.c **** #if(CYBLE_GATT_ROLE_CLIENT)
 211:Generated_Source\PSoC4/BLE_gatt.c **** 
 212:Generated_Source\PSoC4/BLE_gatt.c **** 
 213:Generated_Source\PSoC4/BLE_gatt.c **** /****************************************************************************** 
 214:Generated_Source\PSoC4/BLE_gatt.c **** * Function Name: CyBle_GattcStartDiscovery
 215:Generated_Source\PSoC4/BLE_gatt.c **** ***************************************************************************//**
 216:Generated_Source\PSoC4/BLE_gatt.c **** * 
 217:Generated_Source\PSoC4/BLE_gatt.c **** *  Starts the automatic server discovery process. Two events may be generated 
 218:Generated_Source\PSoC4/BLE_gatt.c **** *  after calling this function - CYBLE_EVT_GATTC_DISCOVERY_COMPLETE or 
 219:Generated_Source\PSoC4/BLE_gatt.c **** *  CYBLE_EVT_GATTC_ERROR_RSP. The CYBLE_EVT_GATTC_DISCOVERY_COMPLETE event is 
 220:Generated_Source\PSoC4/BLE_gatt.c **** *  generated when the remote device was successfully discovered. The
 221:Generated_Source\PSoC4/BLE_gatt.c **** *  CYBLE_EVT_GATTC_ERROR_RSP is generated if the device discovery is failed.
 222:Generated_Source\PSoC4/BLE_gatt.c **** * 
 223:Generated_Source\PSoC4/BLE_gatt.c **** *  \param connHandle: The handle which consists of the device ID and ATT connection ID.
 224:Generated_Source\PSoC4/BLE_gatt.c **** * 
 225:Generated_Source\PSoC4/BLE_gatt.c **** * \return
 226:Generated_Source\PSoC4/BLE_gatt.c **** *	CYBLE_API_RESULT_T : Return value indicates if the function succeeded or
 227:Generated_Source\PSoC4/BLE_gatt.c **** *                        failed. Following are the possible error codes.
 228:Generated_Source\PSoC4/BLE_gatt.c **** *
 229:Generated_Source\PSoC4/BLE_gatt.c **** *   <table>	
 230:Generated_Source\PSoC4/BLE_gatt.c **** *   <tr>
 231:Generated_Source\PSoC4/BLE_gatt.c **** *	  <th>Errors codes</th>
 232:Generated_Source\PSoC4/BLE_gatt.c **** *	  <th>Description</th>
 233:Generated_Source\PSoC4/BLE_gatt.c **** *	</tr>
 234:Generated_Source\PSoC4/BLE_gatt.c **** *	<tr>
 235:Generated_Source\PSoC4/BLE_gatt.c **** *	  <td>CYBLE_ERROR_OK</td>
 236:Generated_Source\PSoC4/BLE_gatt.c **** *	  <td>On successful operation</td>
 237:Generated_Source\PSoC4/BLE_gatt.c **** *	</tr>
 238:Generated_Source\PSoC4/BLE_gatt.c **** *	<tr>
 239:Generated_Source\PSoC4/BLE_gatt.c **** *	  <td>CYBLE_ERROR_INVALID_PARAMETER</td>
 240:Generated_Source\PSoC4/BLE_gatt.c **** *	  <td>'connHandle' value does not represent any existing entry.</td>
 241:Generated_Source\PSoC4/BLE_gatt.c **** *	</tr>
 242:Generated_Source\PSoC4/BLE_gatt.c **** *	<tr>
 243:Generated_Source\PSoC4/BLE_gatt.c **** *	  <td>CYBLE_ERROR_INVALID_OPERATION</td>
 244:Generated_Source\PSoC4/BLE_gatt.c **** *	  <td>The operation is not permitted</td>
 245:Generated_Source\PSoC4/BLE_gatt.c **** *	</tr>
 246:Generated_Source\PSoC4/BLE_gatt.c **** *   <tr>
 247:Generated_Source\PSoC4/BLE_gatt.c **** *	  <td>CYBLE_ERROR_MEMORY_ALLOCATION_FAILED</td>
 248:Generated_Source\PSoC4/BLE_gatt.c **** *	  <td>Memory allocation failed</td>
 249:Generated_Source\PSoC4/BLE_gatt.c **** *	</tr>
 250:Generated_Source\PSoC4/BLE_gatt.c **** *   <tr>
 251:Generated_Source\PSoC4/BLE_gatt.c **** *	  <td>CYBLE_ERROR_INVALID_STATE</td>
 252:Generated_Source\PSoC4/BLE_gatt.c **** *	  <td>If the function is called in any state except connected or discovered</td>
 253:Generated_Source\PSoC4/BLE_gatt.c **** *	</tr>
 254:Generated_Source\PSoC4/BLE_gatt.c **** *   </table>
ARM GAS  C:\Users\cnpan\AppData\Local\Temp\ccsqW0il.s 			page 6


 255:Generated_Source\PSoC4/BLE_gatt.c **** * 
 256:Generated_Source\PSoC4/BLE_gatt.c **** ******************************************************************************/
 257:Generated_Source\PSoC4/BLE_gatt.c **** CYBLE_API_RESULT_T CyBle_GattcStartDiscovery(CYBLE_CONN_HANDLE_T connHandle)
 258:Generated_Source\PSoC4/BLE_gatt.c **** {
  32              		.loc 1 258 0
  33              		.cfi_startproc
  34              		@ args = 0, pretend = 0, frame = 16
  35              		@ frame_needed = 1, uses_anonymous_args = 0
  36 0000 90B5     		push	{r4, r7, lr}
  37              		.cfi_def_cfa_offset 12
  38              		.cfi_offset 4, -12
  39              		.cfi_offset 7, -8
  40              		.cfi_offset 14, -4
  41 0002 85B0     		sub	sp, sp, #20
  42              		.cfi_def_cfa_offset 32
  43 0004 00AF     		add	r7, sp, #0
  44              		.cfi_def_cfa_register 7
  45 0006 3B1D     		adds	r3, r7, #4
  46 0008 1880     		strh	r0, [r3]
 259:Generated_Source\PSoC4/BLE_gatt.c ****     uint8 j;
 260:Generated_Source\PSoC4/BLE_gatt.c ****     CYBLE_API_RESULT_T apiResult;
 261:Generated_Source\PSoC4/BLE_gatt.c ****     
 262:Generated_Source\PSoC4/BLE_gatt.c ****     if((CyBle_GetState() != CYBLE_STATE_CONNECTED) || 
  47              		.loc 1 262 0
  48 000a 304B     		ldr	r3, .L8
  49 000c 1B78     		ldrb	r3, [r3]
  50 000e 022B     		cmp	r3, #2
  51 0010 07D1     		bne	.L2
 263:Generated_Source\PSoC4/BLE_gatt.c ****        ((CyBle_GetClientState() != CYBLE_CLIENT_STATE_CONNECTED) && 
  52              		.loc 1 263 0 discriminator 1
  53 0012 2F4B     		ldr	r3, .L8+4
  54 0014 1B78     		ldrb	r3, [r3]
 262:Generated_Source\PSoC4/BLE_gatt.c ****        ((CyBle_GetClientState() != CYBLE_CLIENT_STATE_CONNECTED) && 
  55              		.loc 1 262 0 discriminator 1
  56 0016 002B     		cmp	r3, #0
  57 0018 09D0     		beq	.L3
 264:Generated_Source\PSoC4/BLE_gatt.c ****         (CyBle_GetClientState() != CYBLE_CLIENT_STATE_DISCOVERED))) 
  58              		.loc 1 264 0
  59 001a 2D4B     		ldr	r3, .L8+4
  60 001c 1B78     		ldrb	r3, [r3]
 263:Generated_Source\PSoC4/BLE_gatt.c ****        ((CyBle_GetClientState() != CYBLE_CLIENT_STATE_CONNECTED) && 
  61              		.loc 1 263 0
  62 001e 052B     		cmp	r3, #5
  63 0020 05D0     		beq	.L3
  64              	.L2:
 265:Generated_Source\PSoC4/BLE_gatt.c ****     {
 266:Generated_Source\PSoC4/BLE_gatt.c ****         apiResult = CYBLE_ERROR_INVALID_STATE;
  65              		.loc 1 266 0
  66 0022 0C23     		movs	r3, #12
  67 0024 FB18     		adds	r3, r7, r3
  68 0026 0422     		movs	r2, #4
  69 0028 FF32     		adds	r2, r2, #255
  70 002a 1A80     		strh	r2, [r3]
  71 002c 47E0     		b	.L4
  72              	.L3:
 267:Generated_Source\PSoC4/BLE_gatt.c ****     }
 268:Generated_Source\PSoC4/BLE_gatt.c ****     else
ARM GAS  C:\Users\cnpan\AppData\Local\Temp\ccsqW0il.s 			page 7


 269:Generated_Source\PSoC4/BLE_gatt.c ****     {
 270:Generated_Source\PSoC4/BLE_gatt.c ****         /* Clean old discovery information */
 271:Generated_Source\PSoC4/BLE_gatt.c ****         for(j = 0u; j < (uint8) CYBLE_SRVI_COUNT; j++)
  73              		.loc 1 271 0
  74 002e 0F23     		movs	r3, #15
  75 0030 FB18     		adds	r3, r7, r3
  76 0032 0022     		movs	r2, #0
  77 0034 1A70     		strb	r2, [r3]
  78 0036 14E0     		b	.L5
  79              	.L6:
 272:Generated_Source\PSoC4/BLE_gatt.c ****         {
 273:Generated_Source\PSoC4/BLE_gatt.c ****             (void)memset(&cyBle_serverInfo[j].range, 0, sizeof(cyBle_serverInfo[0].range));
  80              		.loc 1 273 0 discriminator 3
  81 0038 0F23     		movs	r3, #15
  82 003a FB18     		adds	r3, r7, r3
  83 003c 1A78     		ldrb	r2, [r3]
  84 003e 1300     		movs	r3, r2
  85 0040 5B00     		lsls	r3, r3, #1
  86 0042 9B18     		adds	r3, r3, r2
  87 0044 5B00     		lsls	r3, r3, #1
  88 0046 234A     		ldr	r2, .L8+8
  89 0048 9B18     		adds	r3, r3, r2
  90 004a 0422     		movs	r2, #4
  91 004c 0021     		movs	r1, #0
  92 004e 1800     		movs	r0, r3
  93 0050 FFF7FEFF 		bl	memset
 271:Generated_Source\PSoC4/BLE_gatt.c ****         {
  94              		.loc 1 271 0 discriminator 3
  95 0054 0F23     		movs	r3, #15
  96 0056 FB18     		adds	r3, r7, r3
  97 0058 1A78     		ldrb	r2, [r3]
  98 005a 0F23     		movs	r3, #15
  99 005c FB18     		adds	r3, r7, r3
 100 005e 0132     		adds	r2, r2, #1
 101 0060 1A70     		strb	r2, [r3]
 102              	.L5:
 271:Generated_Source\PSoC4/BLE_gatt.c ****         {
 103              		.loc 1 271 0 is_stmt 0 discriminator 1
 104 0062 0F23     		movs	r3, #15
 105 0064 FB18     		adds	r3, r7, r3
 106 0066 1B78     		ldrb	r3, [r3]
 107 0068 032B     		cmp	r3, #3
 108 006a E5D9     		bls	.L6
 274:Generated_Source\PSoC4/BLE_gatt.c ****         }
 275:Generated_Source\PSoC4/BLE_gatt.c **** 
 276:Generated_Source\PSoC4/BLE_gatt.c ****         cyBle_connHandle = connHandle;
 109              		.loc 1 276 0 is_stmt 1
 110 006c 1A4A     		ldr	r2, .L8+12
 111 006e 3B1D     		adds	r3, r7, #4
 112 0070 1000     		movs	r0, r2
 113 0072 1900     		movs	r1, r3
 114 0074 0223     		movs	r3, #2
 115 0076 1A00     		movs	r2, r3
 116 0078 FFF7FEFF 		bl	memcpy
 277:Generated_Source\PSoC4/BLE_gatt.c ****         cyBle_gattcDiscoveryRange.startHandle = CYBLE_GATT_ATTR_HANDLE_START_RANGE;
 117              		.loc 1 277 0
 118 007c 174B     		ldr	r3, .L8+16
ARM GAS  C:\Users\cnpan\AppData\Local\Temp\ccsqW0il.s 			page 8


 119 007e 0122     		movs	r2, #1
 120 0080 1A80     		strh	r2, [r3]
 278:Generated_Source\PSoC4/BLE_gatt.c ****         cyBle_gattcDiscoveryRange.endHandle = CYBLE_GATT_ATTR_HANDLE_END_RANGE;
 121              		.loc 1 278 0
 122 0082 164B     		ldr	r3, .L8+16
 123 0084 0122     		movs	r2, #1
 124 0086 5242     		rsbs	r2, r2, #0
 125 0088 5A80     		strh	r2, [r3, #2]
 279:Generated_Source\PSoC4/BLE_gatt.c ****         
 280:Generated_Source\PSoC4/BLE_gatt.c ****         CyBle_ServiceInit();
 126              		.loc 1 280 0
 127 008a FFF7FEFF 		bl	CyBle_ServiceInit
 281:Generated_Source\PSoC4/BLE_gatt.c ****         
 282:Generated_Source\PSoC4/BLE_gatt.c ****         apiResult = CyBle_GattcDiscoverAllPrimaryServices(connHandle);
 128              		.loc 1 282 0
 129 008e 0C23     		movs	r3, #12
 130 0090 FC18     		adds	r4, r7, r3
 131 0092 3B1D     		adds	r3, r7, #4
 132 0094 1868     		ldr	r0, [r3]
 133 0096 FFF7FEFF 		bl	CyBle_GattcDiscoverAllPrimaryServices
 134 009a 0300     		movs	r3, r0
 135 009c 2380     		strh	r3, [r4]
 283:Generated_Source\PSoC4/BLE_gatt.c **** 
 284:Generated_Source\PSoC4/BLE_gatt.c ****         if(apiResult == CYBLE_ERROR_OK)
 136              		.loc 1 284 0
 137 009e 0C23     		movs	r3, #12
 138 00a0 FB18     		adds	r3, r7, r3
 139 00a2 1B88     		ldrh	r3, [r3]
 140 00a4 002B     		cmp	r3, #0
 141 00a6 0AD1     		bne	.L4
 285:Generated_Source\PSoC4/BLE_gatt.c ****         {
 286:Generated_Source\PSoC4/BLE_gatt.c ****             CyBle_SetClientState(CYBLE_CLIENT_STATE_SRVC_DISCOVERING);
 142              		.loc 1 286 0
 143 00a8 094B     		ldr	r3, .L8+4
 144 00aa 0122     		movs	r2, #1
 145 00ac 1A70     		strb	r2, [r3]
 287:Generated_Source\PSoC4/BLE_gatt.c ****             cyBle_eventHandlerFlag |= CYBLE_AUTO_DISCOVERY;
 146              		.loc 1 287 0
 147 00ae 0C4B     		ldr	r3, .L8+20
 148 00b0 1B78     		ldrb	r3, [r3]
 149 00b2 DBB2     		uxtb	r3, r3
 150 00b4 0222     		movs	r2, #2
 151 00b6 1343     		orrs	r3, r2
 152 00b8 DAB2     		uxtb	r2, r3
 153 00ba 094B     		ldr	r3, .L8+20
 154 00bc 1A70     		strb	r2, [r3]
 155              	.L4:
 288:Generated_Source\PSoC4/BLE_gatt.c ****         }
 289:Generated_Source\PSoC4/BLE_gatt.c ****     }
 290:Generated_Source\PSoC4/BLE_gatt.c ****     
 291:Generated_Source\PSoC4/BLE_gatt.c ****     return (apiResult);
 156              		.loc 1 291 0
 157 00be 0C23     		movs	r3, #12
 158 00c0 FB18     		adds	r3, r7, r3
 159 00c2 1B88     		ldrh	r3, [r3]
 292:Generated_Source\PSoC4/BLE_gatt.c **** }
 160              		.loc 1 292 0
ARM GAS  C:\Users\cnpan\AppData\Local\Temp\ccsqW0il.s 			page 9


 161 00c4 1800     		movs	r0, r3
 162 00c6 BD46     		mov	sp, r7
 163 00c8 05B0     		add	sp, sp, #20
 164              		@ sp needed
 165 00ca 90BD     		pop	{r4, r7, pc}
 166              	.L9:
 167              		.align	2
 168              	.L8:
 169 00cc 00000000 		.word	cyBle_state
 170 00d0 00000000 		.word	cyBle_clientState
 171 00d4 00000000 		.word	cyBle_serverInfo
 172 00d8 00000000 		.word	cyBle_connHandle
 173 00dc 00000000 		.word	cyBle_gattcDiscoveryRange
 174 00e0 00000000 		.word	cyBle_eventHandlerFlag
 175              		.cfi_endproc
 176              	.LFE2:
 177              		.size	CyBle_GattcStartDiscovery, .-CyBle_GattcStartDiscovery
 178              		.section	.text.CyBle_GattcStartPartialDiscovery,"ax",%progbits
 179              		.align	2
 180              		.global	CyBle_GattcStartPartialDiscovery
 181              		.code	16
 182              		.thumb_func
 183              		.type	CyBle_GattcStartPartialDiscovery, %function
 184              	CyBle_GattcStartPartialDiscovery:
 185              	.LFB3:
 293:Generated_Source\PSoC4/BLE_gatt.c **** 
 294:Generated_Source\PSoC4/BLE_gatt.c **** 
 295:Generated_Source\PSoC4/BLE_gatt.c **** /****************************************************************************** 
 296:Generated_Source\PSoC4/BLE_gatt.c **** * Function Name: CyBle_GattcStartPartialDiscovery
 297:Generated_Source\PSoC4/BLE_gatt.c **** ***************************************************************************//**
 298:Generated_Source\PSoC4/BLE_gatt.c **** * 
 299:Generated_Source\PSoC4/BLE_gatt.c **** *  Starts the automatic server discovery process as per the range provided
 300:Generated_Source\PSoC4/BLE_gatt.c **** *  on a GATT Server to which it is connected. This API could be used for 
 301:Generated_Source\PSoC4/BLE_gatt.c **** *  partial server discovery after indication received to the Service Changed
 302:Generated_Source\PSoC4/BLE_gatt.c **** *  Characteristic Value. Two events may be generated 
 303:Generated_Source\PSoC4/BLE_gatt.c **** *  after calling this function - CYBLE_EVT_GATTC_DISCOVERY_COMPLETE or 
 304:Generated_Source\PSoC4/BLE_gatt.c **** *  CYBLE_EVT_GATTC_ERROR_RSP. The CYBLE_EVT_GATTC_DISCOVERY_COMPLETE event is 
 305:Generated_Source\PSoC4/BLE_gatt.c **** *  generated when the remote device was successfully discovered. The
 306:Generated_Source\PSoC4/BLE_gatt.c **** *  CYBLE_EVT_GATTC_ERROR_RSP is generated if the device discovery is failed.
 307:Generated_Source\PSoC4/BLE_gatt.c **** * 
 308:Generated_Source\PSoC4/BLE_gatt.c **** *  \param connHandle: The handle which consists of the device ID and ATT connection ID.
 309:Generated_Source\PSoC4/BLE_gatt.c **** *  \param startHandle: Start of affected attribute handle range.
 310:Generated_Source\PSoC4/BLE_gatt.c **** *  \param endHandle: End of affected attribute handle range.
 311:Generated_Source\PSoC4/BLE_gatt.c **** * 
 312:Generated_Source\PSoC4/BLE_gatt.c **** *  \return
 313:Generated_Source\PSoC4/BLE_gatt.c **** *	CYBLE_API_RESULT_T : Return value indicates if the function succeeded or
 314:Generated_Source\PSoC4/BLE_gatt.c **** *                        failed. Following are the possible error codes.
 315:Generated_Source\PSoC4/BLE_gatt.c **** *
 316:Generated_Source\PSoC4/BLE_gatt.c **** *   <table>	
 317:Generated_Source\PSoC4/BLE_gatt.c **** *   <tr>
 318:Generated_Source\PSoC4/BLE_gatt.c **** *	  <th>Errors codes</th>
 319:Generated_Source\PSoC4/BLE_gatt.c **** *	  <th>Description</th>
 320:Generated_Source\PSoC4/BLE_gatt.c **** *	</tr>
 321:Generated_Source\PSoC4/BLE_gatt.c **** *	<tr>
 322:Generated_Source\PSoC4/BLE_gatt.c **** *	  <td>CYBLE_ERROR_OK</td>
 323:Generated_Source\PSoC4/BLE_gatt.c **** *	  <td>On successful operation</td>
 324:Generated_Source\PSoC4/BLE_gatt.c **** *	</tr>
ARM GAS  C:\Users\cnpan\AppData\Local\Temp\ccsqW0il.s 			page 10


 325:Generated_Source\PSoC4/BLE_gatt.c **** *	<tr>
 326:Generated_Source\PSoC4/BLE_gatt.c **** *	  <td>CYBLE_ERROR_INVALID_PARAMETER</td>
 327:Generated_Source\PSoC4/BLE_gatt.c **** *	  <td>'connHandle' value does not represent any existing entry.</td>
 328:Generated_Source\PSoC4/BLE_gatt.c **** *	</tr>
 329:Generated_Source\PSoC4/BLE_gatt.c **** *	<tr>
 330:Generated_Source\PSoC4/BLE_gatt.c **** *	  <td>CYBLE_ERROR_INVALID_OPERATION</td>
 331:Generated_Source\PSoC4/BLE_gatt.c **** *	  <td>The operation is not permitted</td>
 332:Generated_Source\PSoC4/BLE_gatt.c **** *	</tr>
 333:Generated_Source\PSoC4/BLE_gatt.c **** *   <tr>
 334:Generated_Source\PSoC4/BLE_gatt.c **** *	  <td>CYBLE_ERROR_MEMORY_ALLOCATION_FAILED</td>
 335:Generated_Source\PSoC4/BLE_gatt.c **** *	  <td>Memory allocation failed</td>
 336:Generated_Source\PSoC4/BLE_gatt.c **** *	</tr>
 337:Generated_Source\PSoC4/BLE_gatt.c **** *   <tr>
 338:Generated_Source\PSoC4/BLE_gatt.c **** *	  <td>CYBLE_ERROR_INVALID_STATE</td>
 339:Generated_Source\PSoC4/BLE_gatt.c **** *	  <td>If the function is called in any state except connected or discovered</td>
 340:Generated_Source\PSoC4/BLE_gatt.c **** *	</tr>
 341:Generated_Source\PSoC4/BLE_gatt.c **** *   </table>
 342:Generated_Source\PSoC4/BLE_gatt.c **** * 
 343:Generated_Source\PSoC4/BLE_gatt.c **** ******************************************************************************/
 344:Generated_Source\PSoC4/BLE_gatt.c **** CYBLE_API_RESULT_T CyBle_GattcStartPartialDiscovery(CYBLE_CONN_HANDLE_T connHandle,
 345:Generated_Source\PSoC4/BLE_gatt.c ****                         CYBLE_GATT_DB_ATTR_HANDLE_T startHandle, CYBLE_GATT_DB_ATTR_HANDLE_T endHan
 346:Generated_Source\PSoC4/BLE_gatt.c **** {
 186              		.loc 1 346 0
 187              		.cfi_startproc
 188              		@ args = 0, pretend = 0, frame = 16
 189              		@ frame_needed = 1, uses_anonymous_args = 0
 190 0000 90B5     		push	{r4, r7, lr}
 191              		.cfi_def_cfa_offset 12
 192              		.cfi_offset 4, -12
 193              		.cfi_offset 7, -8
 194              		.cfi_offset 14, -4
 195 0002 85B0     		sub	sp, sp, #20
 196              		.cfi_def_cfa_offset 32
 197 0004 00AF     		add	r7, sp, #0
 198              		.cfi_def_cfa_register 7
 199 0006 3B1D     		adds	r3, r7, #4
 200 0008 1880     		strh	r0, [r3]
 201 000a 0800     		movs	r0, r1
 202 000c 1100     		movs	r1, r2
 203 000e BB1C     		adds	r3, r7, #2
 204 0010 021C     		adds	r2, r0, #0
 205 0012 1A80     		strh	r2, [r3]
 206 0014 3B00     		movs	r3, r7
 207 0016 0A1C     		adds	r2, r1, #0
 208 0018 1A80     		strh	r2, [r3]
 347:Generated_Source\PSoC4/BLE_gatt.c ****     uint8 j;
 348:Generated_Source\PSoC4/BLE_gatt.c ****     CYBLE_API_RESULT_T apiResult;
 349:Generated_Source\PSoC4/BLE_gatt.c ****     
 350:Generated_Source\PSoC4/BLE_gatt.c ****     if((CyBle_GetState() != CYBLE_STATE_CONNECTED) || 
 209              		.loc 1 350 0
 210 001a 3F4B     		ldr	r3, .L18
 211 001c 1B78     		ldrb	r3, [r3]
 212 001e 022B     		cmp	r3, #2
 213 0020 07D1     		bne	.L11
 351:Generated_Source\PSoC4/BLE_gatt.c ****        ((CyBle_GetClientState() != CYBLE_CLIENT_STATE_CONNECTED) && 
 214              		.loc 1 351 0 discriminator 1
 215 0022 3E4B     		ldr	r3, .L18+4
ARM GAS  C:\Users\cnpan\AppData\Local\Temp\ccsqW0il.s 			page 11


 216 0024 1B78     		ldrb	r3, [r3]
 350:Generated_Source\PSoC4/BLE_gatt.c ****        ((CyBle_GetClientState() != CYBLE_CLIENT_STATE_CONNECTED) && 
 217              		.loc 1 350 0 discriminator 1
 218 0026 002B     		cmp	r3, #0
 219 0028 09D0     		beq	.L12
 352:Generated_Source\PSoC4/BLE_gatt.c ****         (CyBle_GetClientState() != CYBLE_CLIENT_STATE_DISCOVERED))) 
 220              		.loc 1 352 0
 221 002a 3C4B     		ldr	r3, .L18+4
 222 002c 1B78     		ldrb	r3, [r3]
 351:Generated_Source\PSoC4/BLE_gatt.c ****        ((CyBle_GetClientState() != CYBLE_CLIENT_STATE_CONNECTED) && 
 223              		.loc 1 351 0
 224 002e 052B     		cmp	r3, #5
 225 0030 05D0     		beq	.L12
 226              	.L11:
 353:Generated_Source\PSoC4/BLE_gatt.c ****     {
 354:Generated_Source\PSoC4/BLE_gatt.c ****         apiResult = CYBLE_ERROR_INVALID_STATE;
 227              		.loc 1 354 0
 228 0032 0C23     		movs	r3, #12
 229 0034 FB18     		adds	r3, r7, r3
 230 0036 0422     		movs	r2, #4
 231 0038 FF32     		adds	r2, r2, #255
 232 003a 1A80     		strh	r2, [r3]
 233 003c 64E0     		b	.L13
 234              	.L12:
 355:Generated_Source\PSoC4/BLE_gatt.c ****     }
 356:Generated_Source\PSoC4/BLE_gatt.c ****     else
 357:Generated_Source\PSoC4/BLE_gatt.c ****     {
 358:Generated_Source\PSoC4/BLE_gatt.c ****         /* Clean old discovery information of affected attribute range */
 359:Generated_Source\PSoC4/BLE_gatt.c ****         for(j = 0u; j < (uint8) CYBLE_SRVI_COUNT; j++)
 235              		.loc 1 359 0
 236 003e 0F23     		movs	r3, #15
 237 0040 FB18     		adds	r3, r7, r3
 238 0042 0022     		movs	r2, #0
 239 0044 1A70     		strb	r2, [r3]
 240 0046 2EE0     		b	.L14
 241              	.L16:
 360:Generated_Source\PSoC4/BLE_gatt.c ****         {
 361:Generated_Source\PSoC4/BLE_gatt.c ****             if((cyBle_serverInfo[j].range.startHandle >= startHandle) &&
 242              		.loc 1 361 0
 243 0048 0F23     		movs	r3, #15
 244 004a FB18     		adds	r3, r7, r3
 245 004c 1A78     		ldrb	r2, [r3]
 246 004e 3449     		ldr	r1, .L18+8
 247 0050 1300     		movs	r3, r2
 248 0052 5B00     		lsls	r3, r3, #1
 249 0054 9B18     		adds	r3, r3, r2
 250 0056 5B00     		lsls	r3, r3, #1
 251 0058 5B5A     		ldrh	r3, [r3, r1]
 252 005a BA1C     		adds	r2, r7, #2
 253 005c 1288     		ldrh	r2, [r2]
 254 005e 9A42     		cmp	r2, r3
 255 0060 1AD8     		bhi	.L15
 362:Generated_Source\PSoC4/BLE_gatt.c ****                (cyBle_serverInfo[j].range.startHandle <= endHandle))
 256              		.loc 1 362 0 discriminator 1
 257 0062 0F23     		movs	r3, #15
 258 0064 FB18     		adds	r3, r7, r3
 259 0066 1A78     		ldrb	r2, [r3]
ARM GAS  C:\Users\cnpan\AppData\Local\Temp\ccsqW0il.s 			page 12


 260 0068 2D49     		ldr	r1, .L18+8
 261 006a 1300     		movs	r3, r2
 262 006c 5B00     		lsls	r3, r3, #1
 263 006e 9B18     		adds	r3, r3, r2
 264 0070 5B00     		lsls	r3, r3, #1
 265 0072 5B5A     		ldrh	r3, [r3, r1]
 361:Generated_Source\PSoC4/BLE_gatt.c ****                (cyBle_serverInfo[j].range.startHandle <= endHandle))
 266              		.loc 1 361 0 discriminator 1
 267 0074 3A00     		movs	r2, r7
 268 0076 1288     		ldrh	r2, [r2]
 269 0078 9A42     		cmp	r2, r3
 270 007a 0DD3     		bcc	.L15
 363:Generated_Source\PSoC4/BLE_gatt.c ****             {
 364:Generated_Source\PSoC4/BLE_gatt.c ****                 (void)memset(&cyBle_serverInfo[j].range, 0, sizeof(cyBle_serverInfo[0].range));
 271              		.loc 1 364 0
 272 007c 0F23     		movs	r3, #15
 273 007e FB18     		adds	r3, r7, r3
 274 0080 1A78     		ldrb	r2, [r3]
 275 0082 1300     		movs	r3, r2
 276 0084 5B00     		lsls	r3, r3, #1
 277 0086 9B18     		adds	r3, r3, r2
 278 0088 5B00     		lsls	r3, r3, #1
 279 008a 254A     		ldr	r2, .L18+8
 280 008c 9B18     		adds	r3, r3, r2
 281 008e 0422     		movs	r2, #4
 282 0090 0021     		movs	r1, #0
 283 0092 1800     		movs	r0, r3
 284 0094 FFF7FEFF 		bl	memset
 285              	.L15:
 359:Generated_Source\PSoC4/BLE_gatt.c ****         {
 286              		.loc 1 359 0 discriminator 2
 287 0098 0F23     		movs	r3, #15
 288 009a FB18     		adds	r3, r7, r3
 289 009c 1A78     		ldrb	r2, [r3]
 290 009e 0F23     		movs	r3, #15
 291 00a0 FB18     		adds	r3, r7, r3
 292 00a2 0132     		adds	r2, r2, #1
 293 00a4 1A70     		strb	r2, [r3]
 294              	.L14:
 359:Generated_Source\PSoC4/BLE_gatt.c ****         {
 295              		.loc 1 359 0 is_stmt 0 discriminator 1
 296 00a6 0F23     		movs	r3, #15
 297 00a8 FB18     		adds	r3, r7, r3
 298 00aa 1B78     		ldrb	r3, [r3]
 299 00ac 032B     		cmp	r3, #3
 300 00ae CBD9     		bls	.L16
 365:Generated_Source\PSoC4/BLE_gatt.c ****             }
 366:Generated_Source\PSoC4/BLE_gatt.c ****         }
 367:Generated_Source\PSoC4/BLE_gatt.c **** 
 368:Generated_Source\PSoC4/BLE_gatt.c ****         cyBle_connHandle = connHandle;
 301              		.loc 1 368 0 is_stmt 1
 302 00b0 1C4A     		ldr	r2, .L18+12
 303 00b2 3B1D     		adds	r3, r7, #4
 304 00b4 1000     		movs	r0, r2
 305 00b6 1900     		movs	r1, r3
 306 00b8 0223     		movs	r3, #2
 307 00ba 1A00     		movs	r2, r3
ARM GAS  C:\Users\cnpan\AppData\Local\Temp\ccsqW0il.s 			page 13


 308 00bc FFF7FEFF 		bl	memcpy
 369:Generated_Source\PSoC4/BLE_gatt.c ****         cyBle_gattcDiscoveryRange.startHandle = startHandle;
 309              		.loc 1 369 0
 310 00c0 194B     		ldr	r3, .L18+16
 311 00c2 BA1C     		adds	r2, r7, #2
 312 00c4 1288     		ldrh	r2, [r2]
 313 00c6 1A80     		strh	r2, [r3]
 370:Generated_Source\PSoC4/BLE_gatt.c ****         cyBle_gattcDiscoveryRange.endHandle = endHandle;
 314              		.loc 1 370 0
 315 00c8 174B     		ldr	r3, .L18+16
 316 00ca 3A00     		movs	r2, r7
 317 00cc 1288     		ldrh	r2, [r2]
 318 00ce 5A80     		strh	r2, [r3, #2]
 371:Generated_Source\PSoC4/BLE_gatt.c **** 
 372:Generated_Source\PSoC4/BLE_gatt.c ****         CyBle_ServiceInit();
 319              		.loc 1 372 0
 320 00d0 FFF7FEFF 		bl	CyBle_ServiceInit
 373:Generated_Source\PSoC4/BLE_gatt.c **** 
 374:Generated_Source\PSoC4/BLE_gatt.c ****         apiResult = CyBle_GattcDiscoverPrimaryServices(connHandle, &cyBle_gattcDiscoveryRange);
 321              		.loc 1 374 0
 322 00d4 0C23     		movs	r3, #12
 323 00d6 FC18     		adds	r4, r7, r3
 324 00d8 134A     		ldr	r2, .L18+16
 325 00da 3B1D     		adds	r3, r7, #4
 326 00dc 1100     		movs	r1, r2
 327 00de 1868     		ldr	r0, [r3]
 328 00e0 FFF7FEFF 		bl	CyBle_GattcDiscoverPrimaryServices
 329 00e4 0300     		movs	r3, r0
 330 00e6 2380     		strh	r3, [r4]
 375:Generated_Source\PSoC4/BLE_gatt.c **** 
 376:Generated_Source\PSoC4/BLE_gatt.c ****         if(apiResult == CYBLE_ERROR_OK)
 331              		.loc 1 376 0
 332 00e8 0C23     		movs	r3, #12
 333 00ea FB18     		adds	r3, r7, r3
 334 00ec 1B88     		ldrh	r3, [r3]
 335 00ee 002B     		cmp	r3, #0
 336 00f0 0AD1     		bne	.L13
 377:Generated_Source\PSoC4/BLE_gatt.c ****         {
 378:Generated_Source\PSoC4/BLE_gatt.c ****             CyBle_SetClientState(CYBLE_CLIENT_STATE_SRVC_DISCOVERING);
 337              		.loc 1 378 0
 338 00f2 0A4B     		ldr	r3, .L18+4
 339 00f4 0122     		movs	r2, #1
 340 00f6 1A70     		strb	r2, [r3]
 379:Generated_Source\PSoC4/BLE_gatt.c ****             cyBle_eventHandlerFlag |= CYBLE_AUTO_DISCOVERY;
 341              		.loc 1 379 0
 342 00f8 0C4B     		ldr	r3, .L18+20
 343 00fa 1B78     		ldrb	r3, [r3]
 344 00fc DBB2     		uxtb	r3, r3
 345 00fe 0222     		movs	r2, #2
 346 0100 1343     		orrs	r3, r2
 347 0102 DAB2     		uxtb	r2, r3
 348 0104 094B     		ldr	r3, .L18+20
 349 0106 1A70     		strb	r2, [r3]
 350              	.L13:
 380:Generated_Source\PSoC4/BLE_gatt.c ****         }
 381:Generated_Source\PSoC4/BLE_gatt.c ****     }
 382:Generated_Source\PSoC4/BLE_gatt.c ****     
ARM GAS  C:\Users\cnpan\AppData\Local\Temp\ccsqW0il.s 			page 14


 383:Generated_Source\PSoC4/BLE_gatt.c ****     return (apiResult);
 351              		.loc 1 383 0
 352 0108 0C23     		movs	r3, #12
 353 010a FB18     		adds	r3, r7, r3
 354 010c 1B88     		ldrh	r3, [r3]
 384:Generated_Source\PSoC4/BLE_gatt.c **** }
 355              		.loc 1 384 0
 356 010e 1800     		movs	r0, r3
 357 0110 BD46     		mov	sp, r7
 358 0112 05B0     		add	sp, sp, #20
 359              		@ sp needed
 360 0114 90BD     		pop	{r4, r7, pc}
 361              	.L19:
 362 0116 C046     		.align	2
 363              	.L18:
 364 0118 00000000 		.word	cyBle_state
 365 011c 00000000 		.word	cyBle_clientState
 366 0120 00000000 		.word	cyBle_serverInfo
 367 0124 00000000 		.word	cyBle_connHandle
 368 0128 00000000 		.word	cyBle_gattcDiscoveryRange
 369 012c 00000000 		.word	cyBle_eventHandlerFlag
 370              		.cfi_endproc
 371              	.LFE3:
 372              		.size	CyBle_GattcStartPartialDiscovery, .-CyBle_GattcStartPartialDiscovery
 373              		.section	.text.CyBle_GattcDiscoverCharacteristicsEventHandler,"ax",%progbits
 374              		.align	2
 375              		.global	CyBle_GattcDiscoverCharacteristicsEventHandler
 376              		.code	16
 377              		.thumb_func
 378              		.type	CyBle_GattcDiscoverCharacteristicsEventHandler, %function
 379              	CyBle_GattcDiscoverCharacteristicsEventHandler:
 380              	.LFB4:
 385:Generated_Source\PSoC4/BLE_gatt.c **** 
 386:Generated_Source\PSoC4/BLE_gatt.c **** 
 387:Generated_Source\PSoC4/BLE_gatt.c **** /******************************************************************************
 388:Generated_Source\PSoC4/BLE_gatt.c **** * Function Name: CyBle_GattcDiscoverCharacteristicsEventHandler
 389:Generated_Source\PSoC4/BLE_gatt.c **** ***************************************************************************//**
 390:Generated_Source\PSoC4/BLE_gatt.c **** * 
 391:Generated_Source\PSoC4/BLE_gatt.c **** *  This function is called on receiving a "CYBLE_EVT_GATTC_READ_BY_TYPE_RSP"
 392:Generated_Source\PSoC4/BLE_gatt.c **** *  event. Based on the service UUID, an appropriate data structure is populated
 393:Generated_Source\PSoC4/BLE_gatt.c **** *  using the data received as part of the callback.
 394:Generated_Source\PSoC4/BLE_gatt.c **** * 
 395:Generated_Source\PSoC4/BLE_gatt.c **** *  \param *discCharInfo: The pointer to a characteristic information structure.
 396:Generated_Source\PSoC4/BLE_gatt.c **** * 
 397:Generated_Source\PSoC4/BLE_gatt.c **** * \return
 398:Generated_Source\PSoC4/BLE_gatt.c **** *  None
 399:Generated_Source\PSoC4/BLE_gatt.c **** * 
 400:Generated_Source\PSoC4/BLE_gatt.c **** ******************************************************************************/
 401:Generated_Source\PSoC4/BLE_gatt.c **** void CyBle_GattcDiscoverCharacteristicsEventHandler(CYBLE_DISC_CHAR_INFO_T *discCharInfo)
 402:Generated_Source\PSoC4/BLE_gatt.c **** {
 381              		.loc 1 402 0
 382              		.cfi_startproc
 383              		@ args = 0, pretend = 0, frame = 8
 384              		@ frame_needed = 1, uses_anonymous_args = 0
 385 0000 80B5     		push	{r7, lr}
 386              		.cfi_def_cfa_offset 8
 387              		.cfi_offset 7, -8
ARM GAS  C:\Users\cnpan\AppData\Local\Temp\ccsqW0il.s 			page 15


 388              		.cfi_offset 14, -4
 389 0002 82B0     		sub	sp, sp, #8
 390              		.cfi_def_cfa_offset 16
 391 0004 00AF     		add	r7, sp, #0
 392              		.cfi_def_cfa_register 7
 393 0006 7860     		str	r0, [r7, #4]
 403:Generated_Source\PSoC4/BLE_gatt.c ****     if(discCharInfo->uuid.uuid16 == CYBLE_UUID_CHAR_SERVICE_CHANGED)
 394              		.loc 1 403 0
 395 0008 7B68     		ldr	r3, [r7, #4]
 396 000a DB88     		ldrh	r3, [r3, #6]
 397 000c 0D4A     		ldr	r2, .L24
 398 000e 9342     		cmp	r3, r2
 399 0010 14D1     		bne	.L23
 404:Generated_Source\PSoC4/BLE_gatt.c ****     {
 405:Generated_Source\PSoC4/BLE_gatt.c ****         CyBle_CheckStoreCharHandle(cyBle_gattc.serviceChanged);
 400              		.loc 1 405 0
 401 0012 0D4B     		ldr	r3, .L24+4
 402 0014 5B88     		ldrh	r3, [r3, #2]
 403 0016 002B     		cmp	r3, #0
 404 0018 08D1     		bne	.L22
 405              		.loc 1 405 0 is_stmt 0 discriminator 1
 406 001a 7B68     		ldr	r3, [r7, #4]
 407 001c 9A88     		ldrh	r2, [r3, #4]
 408 001e 0A4B     		ldr	r3, .L24+4
 409 0020 5A80     		strh	r2, [r3, #2]
 410 0022 7B68     		ldr	r3, [r7, #4]
 411 0024 9A78     		ldrb	r2, [r3, #2]
 412 0026 084B     		ldr	r3, .L24+4
 413 0028 1A70     		strb	r2, [r3]
 406:Generated_Source\PSoC4/BLE_gatt.c ****     }
 407:Generated_Source\PSoC4/BLE_gatt.c **** }
 414              		.loc 1 407 0 is_stmt 1 discriminator 1
 415 002a 07E0     		b	.L23
 416              	.L22:
 405:Generated_Source\PSoC4/BLE_gatt.c ****     }
 417              		.loc 1 405 0 discriminator 2
 418 002c 074B     		ldr	r3, .L24+8
 419 002e 1B68     		ldr	r3, [r3]
 420 0030 7A68     		ldr	r2, [r7, #4]
 421 0032 911D     		adds	r1, r2, #6
 422 0034 8622     		movs	r2, #134
 423 0036 5200     		lsls	r2, r2, #1
 424 0038 1000     		movs	r0, r2
 425 003a 9847     		blx	r3
 426              	.L23:
 427              		.loc 1 407 0
 428 003c C046     		nop
 429 003e BD46     		mov	sp, r7
 430 0040 02B0     		add	sp, sp, #8
 431              		@ sp needed
 432 0042 80BD     		pop	{r7, pc}
 433              	.L25:
 434              		.align	2
 435              	.L24:
 436 0044 052A0000 		.word	10757
 437 0048 00000000 		.word	cyBle_gattc
 438 004c 00000000 		.word	CyBle_ApplCallback
ARM GAS  C:\Users\cnpan\AppData\Local\Temp\ccsqW0il.s 			page 16


 439              		.cfi_endproc
 440              	.LFE4:
 441              		.size	CyBle_GattcDiscoverCharacteristicsEventHandler, .-CyBle_GattcDiscoverCharacteristicsEventHan
 442              		.section	.text.CyBle_GattcDiscoverCharDescriptorsEventHandler,"ax",%progbits
 443              		.align	2
 444              		.global	CyBle_GattcDiscoverCharDescriptorsEventHandler
 445              		.code	16
 446              		.thumb_func
 447              		.type	CyBle_GattcDiscoverCharDescriptorsEventHandler, %function
 448              	CyBle_GattcDiscoverCharDescriptorsEventHandler:
 449              	.LFB5:
 408:Generated_Source\PSoC4/BLE_gatt.c **** 
 409:Generated_Source\PSoC4/BLE_gatt.c **** 
 410:Generated_Source\PSoC4/BLE_gatt.c **** /******************************************************************************
 411:Generated_Source\PSoC4/BLE_gatt.c **** * Function Name: CyBle_GattcDiscoverCharDescriptorsEventHandler
 412:Generated_Source\PSoC4/BLE_gatt.c **** ***************************************************************************//**
 413:Generated_Source\PSoC4/BLE_gatt.c **** * 
 414:Generated_Source\PSoC4/BLE_gatt.c **** *  This function is called on receiving a "CYBLE_EVT_GATTC_FIND_INFO_RSP" event.
 415:Generated_Source\PSoC4/BLE_gatt.c **** *  Based on the descriptor UUID, an appropriate data structure is populated 
 416:Generated_Source\PSoC4/BLE_gatt.c **** *  using the data received as part of the callback.
 417:Generated_Source\PSoC4/BLE_gatt.c **** * 
 418:Generated_Source\PSoC4/BLE_gatt.c **** *  \param *discDescrInfo: The pointer to a descriptor information structure.
 419:Generated_Source\PSoC4/BLE_gatt.c **** *  \param discoveryService: The index of the service instance
 420:Generated_Source\PSoC4/BLE_gatt.c **** * 
 421:Generated_Source\PSoC4/BLE_gatt.c **** * \return
 422:Generated_Source\PSoC4/BLE_gatt.c **** *  None
 423:Generated_Source\PSoC4/BLE_gatt.c **** * 
 424:Generated_Source\PSoC4/BLE_gatt.c **** ******************************************************************************/
 425:Generated_Source\PSoC4/BLE_gatt.c **** void CyBle_GattcDiscoverCharDescriptorsEventHandler(CYBLE_DISC_DESCR_INFO_T *discDescrInfo)
 426:Generated_Source\PSoC4/BLE_gatt.c **** {
 450              		.loc 1 426 0
 451              		.cfi_startproc
 452              		@ args = 0, pretend = 0, frame = 8
 453              		@ frame_needed = 1, uses_anonymous_args = 0
 454 0000 80B5     		push	{r7, lr}
 455              		.cfi_def_cfa_offset 8
 456              		.cfi_offset 7, -8
 457              		.cfi_offset 14, -4
 458 0002 82B0     		sub	sp, sp, #8
 459              		.cfi_def_cfa_offset 16
 460 0004 00AF     		add	r7, sp, #0
 461              		.cfi_def_cfa_register 7
 462 0006 7860     		str	r0, [r7, #4]
 427:Generated_Source\PSoC4/BLE_gatt.c ****     if(discDescrInfo->uuid.uuid16 == CYBLE_UUID_CHAR_CLIENT_CONFIG)
 463              		.loc 1 427 0
 464 0008 7B68     		ldr	r3, [r7, #4]
 465 000a 9B88     		ldrh	r3, [r3, #4]
 466 000c 0B4A     		ldr	r2, .L30
 467 000e 9342     		cmp	r3, r2
 468 0010 10D1     		bne	.L29
 428:Generated_Source\PSoC4/BLE_gatt.c ****     {
 429:Generated_Source\PSoC4/BLE_gatt.c ****         CyBle_CheckStoreCharDescrHandle(cyBle_gattc.cccdHandle);
 469              		.loc 1 429 0
 470 0012 0B4B     		ldr	r3, .L30+4
 471 0014 9B88     		ldrh	r3, [r3, #4]
 472 0016 002B     		cmp	r3, #0
 473 0018 04D1     		bne	.L28
ARM GAS  C:\Users\cnpan\AppData\Local\Temp\ccsqW0il.s 			page 17


 474              		.loc 1 429 0 is_stmt 0 discriminator 1
 475 001a 7B68     		ldr	r3, [r7, #4]
 476 001c 5A88     		ldrh	r2, [r3, #2]
 477 001e 084B     		ldr	r3, .L30+4
 478 0020 9A80     		strh	r2, [r3, #4]
 430:Generated_Source\PSoC4/BLE_gatt.c ****     }
 431:Generated_Source\PSoC4/BLE_gatt.c **** }
 479              		.loc 1 431 0 is_stmt 1 discriminator 1
 480 0022 07E0     		b	.L29
 481              	.L28:
 429:Generated_Source\PSoC4/BLE_gatt.c ****     }
 482              		.loc 1 429 0 discriminator 2
 483 0024 074B     		ldr	r3, .L30+8
 484 0026 1B68     		ldr	r3, [r3]
 485 0028 7A68     		ldr	r2, [r7, #4]
 486 002a 111D     		adds	r1, r2, #4
 487 002c 8622     		movs	r2, #134
 488 002e 5200     		lsls	r2, r2, #1
 489 0030 1000     		movs	r0, r2
 490 0032 9847     		blx	r3
 491              	.L29:
 492              		.loc 1 431 0
 493 0034 C046     		nop
 494 0036 BD46     		mov	sp, r7
 495 0038 02B0     		add	sp, sp, #8
 496              		@ sp needed
 497 003a 80BD     		pop	{r7, pc}
 498              	.L31:
 499              		.align	2
 500              	.L30:
 501 003c 02290000 		.word	10498
 502 0040 00000000 		.word	cyBle_gattc
 503 0044 00000000 		.word	CyBle_ApplCallback
 504              		.cfi_endproc
 505              	.LFE5:
 506              		.size	CyBle_GattcDiscoverCharDescriptorsEventHandler, .-CyBle_GattcDiscoverCharDescriptorsEventHan
 507              		.section	.text.CyBle_GattcIndicationEventHandler,"ax",%progbits
 508              		.align	2
 509              		.global	CyBle_GattcIndicationEventHandler
 510              		.code	16
 511              		.thumb_func
 512              		.type	CyBle_GattcIndicationEventHandler, %function
 513              	CyBle_GattcIndicationEventHandler:
 514              	.LFB6:
 432:Generated_Source\PSoC4/BLE_gatt.c **** 
 433:Generated_Source\PSoC4/BLE_gatt.c **** 
 434:Generated_Source\PSoC4/BLE_gatt.c **** /******************************************************************************
 435:Generated_Source\PSoC4/BLE_gatt.c **** * Function Name: CyBle_GattcIndicationEventHandler
 436:Generated_Source\PSoC4/BLE_gatt.c **** ***************************************************************************//**
 437:Generated_Source\PSoC4/BLE_gatt.c **** * 
 438:Generated_Source\PSoC4/BLE_gatt.c **** *  Handles the Indication Event.
 439:Generated_Source\PSoC4/BLE_gatt.c **** * 
 440:Generated_Source\PSoC4/BLE_gatt.c **** *  \param *eventParam: The pointer to the data structure specified by the event.
 441:Generated_Source\PSoC4/BLE_gatt.c **** * 
 442:Generated_Source\PSoC4/BLE_gatt.c **** * \return
 443:Generated_Source\PSoC4/BLE_gatt.c **** *  None.
 444:Generated_Source\PSoC4/BLE_gatt.c **** * 
ARM GAS  C:\Users\cnpan\AppData\Local\Temp\ccsqW0il.s 			page 18


 445:Generated_Source\PSoC4/BLE_gatt.c **** ******************************************************************************/
 446:Generated_Source\PSoC4/BLE_gatt.c **** void CyBle_GattcIndicationEventHandler(CYBLE_GATTC_HANDLE_VALUE_IND_PARAM_T *eventParam)
 447:Generated_Source\PSoC4/BLE_gatt.c **** {
 515              		.loc 1 447 0
 516              		.cfi_startproc
 517              		@ args = 0, pretend = 0, frame = 8
 518              		@ frame_needed = 1, uses_anonymous_args = 0
 519 0000 80B5     		push	{r7, lr}
 520              		.cfi_def_cfa_offset 8
 521              		.cfi_offset 7, -8
 522              		.cfi_offset 14, -4
 523 0002 82B0     		sub	sp, sp, #8
 524              		.cfi_def_cfa_offset 16
 525 0004 00AF     		add	r7, sp, #0
 526              		.cfi_def_cfa_register 7
 527 0006 7860     		str	r0, [r7, #4]
 448:Generated_Source\PSoC4/BLE_gatt.c ****     if(cyBle_gattc.serviceChanged.valueHandle == eventParam->handleValPair.attrHandle)
 528              		.loc 1 448 0
 529 0008 0C4B     		ldr	r3, .L35
 530 000a 5A88     		ldrh	r2, [r3, #2]
 531 000c 7B68     		ldr	r3, [r7, #4]
 532 000e 9B89     		ldrh	r3, [r3, #12]
 533 0010 9A42     		cmp	r2, r3
 534 0012 0ED1     		bne	.L34
 449:Generated_Source\PSoC4/BLE_gatt.c ****     {
 450:Generated_Source\PSoC4/BLE_gatt.c ****         CyBle_ApplCallback((uint32)CYBLE_EVT_GATTC_INDICATION, eventParam);
 535              		.loc 1 450 0
 536 0014 0A4B     		ldr	r3, .L35+4
 537 0016 1B68     		ldr	r3, [r3]
 538 0018 7968     		ldr	r1, [r7, #4]
 539 001a 8322     		movs	r2, #131
 540 001c 5200     		lsls	r2, r2, #1
 541 001e 1000     		movs	r0, r2
 542 0020 9847     		blx	r3
 451:Generated_Source\PSoC4/BLE_gatt.c ****         cyBle_eventHandlerFlag &= (uint8)~CYBLE_CALLBACK;
 543              		.loc 1 451 0
 544 0022 084B     		ldr	r3, .L35+8
 545 0024 1B78     		ldrb	r3, [r3]
 546 0026 DBB2     		uxtb	r3, r3
 547 0028 0122     		movs	r2, #1
 548 002a 9343     		bics	r3, r2
 549 002c DAB2     		uxtb	r2, r3
 550 002e 054B     		ldr	r3, .L35+8
 551 0030 1A70     		strb	r2, [r3]
 552              	.L34:
 452:Generated_Source\PSoC4/BLE_gatt.c ****     }
 453:Generated_Source\PSoC4/BLE_gatt.c **** }
 553              		.loc 1 453 0
 554 0032 C046     		nop
 555 0034 BD46     		mov	sp, r7
 556 0036 02B0     		add	sp, sp, #8
 557              		@ sp needed
 558 0038 80BD     		pop	{r7, pc}
 559              	.L36:
 560 003a C046     		.align	2
 561              	.L35:
 562 003c 00000000 		.word	cyBle_gattc
ARM GAS  C:\Users\cnpan\AppData\Local\Temp\ccsqW0il.s 			page 19


 563 0040 00000000 		.word	CyBle_ApplCallback
 564 0044 00000000 		.word	cyBle_eventHandlerFlag
 565              		.cfi_endproc
 566              	.LFE6:
 567              		.size	CyBle_GattcIndicationEventHandler, .-CyBle_GattcIndicationEventHandler
 568              		.text
 569              	.Letext0:
 570              		.file 2 "Generated_Source\\PSoC4\\cytypes.h"
 571              		.file 3 "Generated_Source\\PSoC4\\BLE_Stack.h"
 572              		.file 4 "Generated_Source\\PSoC4\\BLE_StackGatt.h"
 573              		.file 5 "Generated_Source\\PSoC4\\BLE_StackGattClient.h"
 574              		.file 6 "Generated_Source\\PSoC4\\BLE.h"
 575              		.file 7 "Generated_Source\\PSoC4\\BLE_gatt.h"
 576              		.file 8 "Generated_Source\\PSoC4\\BLE_eventHandler.h"