ARM GAS  C:\Users\cnpan\AppData\Local\Temp\cc94LODs.s 			page 1


   1              		.syntax unified
   2              		.cpu cortex-m0
   3              		.fpu softvfp
   4              		.eabi_attribute 20, 1
   5              		.eabi_attribute 21, 1
   6              		.eabi_attribute 23, 3
   7              		.eabi_attribute 24, 1
   8              		.eabi_attribute 25, 1
   9              		.eabi_attribute 26, 1
  10              		.eabi_attribute 30, 6
  11              		.eabi_attribute 34, 0
  12              		.eabi_attribute 18, 4
  13              		.thumb
  14              		.syntax unified
  15              		.file	"BLEclient.c"
  16              		.text
  17              	.Ltext0:
  18              		.cfi_sections	.debug_frame
  19              		.comm	list_of_devices,200,4
  20              		.comm	connectPeriphDevice,7,4
  21              		.comm	connHandle,2,4
  22              		.global	deviceConnected
  23              		.bss
  24              		.type	deviceConnected, %object
  25              		.size	deviceConnected, 1
  26              	deviceConnected:
  27 0000 00       		.space	1
  28              		.global	ble_state
  29              		.data
  30              		.type	ble_state, %object
  31              		.size	ble_state, 1
  32              	ble_state:
  33 0000 01       		.byte	1
  34              		.comm	address_store,60,4
  35              		.comm	peripheralAddress,6,4
  36              		.global	peripheralFound
  37              		.bss
  38              		.type	peripheralFound, %object
  39              		.size	peripheralFound, 1
  40              	peripheralFound:
  41 0001 00       		.space	1
  42              		.global	addedDevices
  43              		.type	addedDevices, %object
  44              		.size	addedDevices, 1
  45              	addedDevices:
  46 0002 00       		.space	1
  47              		.global	restartScanning
  48              		.type	restartScanning, %object
  49              		.size	restartScanning, 1
  50              	restartScanning:
  51 0003 00       		.space	1
  52              		.comm	deviceName,30,4
  53              		.section	.rodata
  54              		.align	2
  55              	.LC10:
  56 0000 56616C75 		.ascii	"Value: %x \015\012\000"
  56      653A2025 
ARM GAS  C:\Users\cnpan\AppData\Local\Temp\cc94LODs.s 			page 2


  56      78200D0A 
  56      00
  57              		.section	.text.ApplicationEventHandler,"ax",%progbits
  58              		.align	2
  59              		.global	ApplicationEventHandler
  60              		.code	16
  61              		.thumb_func
  62              		.type	ApplicationEventHandler, %function
  63              	ApplicationEventHandler:
  64              	.LFB38:
  65              		.file 1 "BLEclient.c"
   1:BLEclient.c   **** #include <main.h>
   2:BLEclient.c   **** #include "debug.h"
   3:BLEclient.c   **** #include "stdio.h"
   4:BLEclient.c   **** #include <project.h>
   5:BLEclient.c   **** 
   6:BLEclient.c   **** /* 'list_of_devices' is an array of type 'CYBLE_GAPC_ADV_REPORT_T' (defined in 
   7:BLEclient.c   ****  * BLE_StackGap.h) that is used to store the reports of the peripheral devices
   8:BLEclient.c   **** * being scanned by this Central device*/
   9:BLEclient.c   **** CYBLE_GAPC_ADV_REPORT_T 	list_of_devices[CYBLE_MAX_ADV_DEVICES];
  10:BLEclient.c   **** 
  11:BLEclient.c   **** /* 'connectPeriphDevice' is a variable of type 'CYBLE_GAP_BD_ADDR_T' (defined in 
  12:BLEclient.c   **** * BLE_StackGap.h) and is used to store address of the connected device. */
  13:BLEclient.c   **** CYBLE_GAP_BD_ADDR_T 		connectPeriphDevice;
  14:BLEclient.c   **** 
  15:BLEclient.c   **** /* 'connHandle' is a variable of type 'CYBLE_CONN_HANDLE_T' (defined in 
  16:BLEclient.c   **** * BLE_StackGatt.h) and is used to store the connection handle parameters after
  17:BLEclient.c   **** * connecting with the peripheral device. */
  18:BLEclient.c   **** CYBLE_CONN_HANDLE_T			connHandle;
  19:BLEclient.c   **** 
  20:BLEclient.c   **** /* 'deviceConnected' flag tells the status of connection with BLE peripheral Device */
  21:BLEclient.c   **** uint8 deviceConnected = FALSE;
  22:BLEclient.c   **** 
  23:BLEclient.c   **** /* 'ble_state' stores the state of connection which is used for updating LEDs */
  24:BLEclient.c   **** uint8 ble_state = BLE_DISCONNECTED;
  25:BLEclient.c   **** 
  26:BLEclient.c   **** /* 'address_store' stores the addresses returned by Scanning results */
  27:BLEclient.c   **** uint8 address_store[10][6];
  28:BLEclient.c   **** 
  29:BLEclient.c   **** /* 'peripheralAddress' stores the addresses of device presently connected to */
  30:BLEclient.c   **** uint8 peripheralAddress[6];
  31:BLEclient.c   **** 
  32:BLEclient.c   **** /* 'peripheralFound' flag tells whether the peripheral device with the required Address
  33:BLEclient.c   ****  * has been found during scanning or not. */
  34:BLEclient.c   **** uint8 peripheralFound = FALSE;
  35:BLEclient.c   **** 
  36:BLEclient.c   **** /* 'addedDevices' tells the number of devices that has been added to the list till now. */
  37:BLEclient.c   **** uint8 addedDevices = FALSE;
  38:BLEclient.c   **** 
  39:BLEclient.c   **** /* 'iasLevel' stores the current alert level as set by Central device */
  40:BLEclient.c   **** extern uint8 iasLevel;
  41:BLEclient.c   **** 
  42:BLEclient.c   **** /* 'restartScanning' flag indicates to application whether starting scan API has to be
  43:BLEclient.c   **** * called or not */
  44:BLEclient.c   **** uint8 restartScanning = FALSE;
  45:BLEclient.c   **** 
  46:BLEclient.c   **** /* 'deviceName' is used to store the Device Name of the device connected */
ARM GAS  C:\Users\cnpan\AppData\Local\Temp\cc94LODs.s 			page 3


  47:BLEclient.c   **** char deviceName[30];
  48:BLEclient.c   **** 
  49:BLEclient.c   **** 
  50:BLEclient.c   **** void ApplicationEventHandler(uint32 event, void *eventparam)
  51:BLEclient.c   **** {
  66              		.loc 1 51 0
  67              		.cfi_startproc
  68              		@ args = 0, pretend = 0, frame = 40
  69              		@ frame_needed = 1, uses_anonymous_args = 0
  70 0000 90B5     		push	{r4, r7, lr}
  71              		.cfi_def_cfa_offset 12
  72              		.cfi_offset 4, -12
  73              		.cfi_offset 7, -8
  74              		.cfi_offset 14, -4
  75 0002 8BB0     		sub	sp, sp, #44
  76              		.cfi_def_cfa_offset 56
  77 0004 00AF     		add	r7, sp, #0
  78              		.cfi_def_cfa_register 7
  79 0006 7860     		str	r0, [r7, #4]
  80 0008 3960     		str	r1, [r7]
  52:BLEclient.c   **** 	/* 'apiResult' is a variable of type 'CYBLE_API_RESULT_T' (defined in 
  53:BLEclient.c   **** 	* BLE_StackTypes.h) and is used to store the return value from BLE APIs. */
  54:BLEclient.c   **** 	CYBLE_API_RESULT_T 			apiResult;
  55:BLEclient.c   **** 	
  56:BLEclient.c   **** 	/* 'scan_report' is a variable of type 'CYBLE_GAPC_ADV_REPORT_T' (defined in 
  57:BLEclient.c   **** 	* BLE_StackGap.h) and is used to store report retuned from Scan results. */
  58:BLEclient.c   **** 	CYBLE_GAPC_ADV_REPORT_T		scan_report;
  59:BLEclient.c   ****     CYBLE_GATTC_READ_RSP_PARAM_T *readResponse;
  60:BLEclient.c   ****     CYBLE_GATTS_WRITE_REQ_PARAM_T *wrReqParam;
  61:BLEclient.c   **** 
  62:BLEclient.c   **** 	/* Local variable for Loop */
  63:BLEclient.c   **** 	uint16 i = FALSE;
  81              		.loc 1 63 0
  82 000a 2623     		movs	r3, #38
  83 000c FB18     		adds	r3, r7, r3
  84 000e 0022     		movs	r2, #0
  85 0010 1A80     		strh	r2, [r3]
  64:BLEclient.c   ****         
  65:BLEclient.c   **** 	switch(event)
  86              		.loc 1 65 0
  87 0012 7B68     		ldr	r3, [r7, #4]
  88 0014 282B     		cmp	r3, #40
  89 0016 00D1     		bne	.LCB21
  90 0018 6FE0     		b	.L3	@long jump
  91              	.LCB21:
  92 001a 0AD8     		bhi	.L4
  93 001c 022B     		cmp	r3, #2
  94 001e 35D0     		beq	.L5
  95 0020 02D8     		bhi	.L6
  96 0022 012B     		cmp	r3, #1
  97 0024 17D0     		beq	.L7
  66:BLEclient.c   **** 	{
  67:BLEclient.c   **** 		case CYBLE_EVT_STACK_ON:
  68:BLEclient.c   **** 			/* Set start scanning flag to allow calling the API in main loop */
  69:BLEclient.c   **** 			restartScanning = TRUE;
  70:BLEclient.c   **** 		break;
  71:BLEclient.c   **** 			
ARM GAS  C:\Users\cnpan\AppData\Local\Temp\cc94LODs.s 			page 4


  72:BLEclient.c   **** 		case CYBLE_EVT_GAPC_SCAN_START_STOP:
  73:BLEclient.c   **** 			/* Add relevant code here pertaining to Starting/Stopping of Scan*/
  74:BLEclient.c   **** 			if(CyBle_GetState() == CYBLE_STATE_DISCONNECTED || CYBLE_STATE_STOPPED)
  75:BLEclient.c   **** 			{
  76:BLEclient.c   **** 				ble_state = BLE_DISCONNECTED;
  77:BLEclient.c   **** 				
  78:BLEclient.c   **** 				if(!peripheralFound)
  79:BLEclient.c   **** 				{
  80:BLEclient.c   **** 					/* Restart Scanning */
  81:BLEclient.c   **** 					Status_LED_Write(1);
  82:BLEclient.c   **** 					restartScanning = TRUE;
  83:BLEclient.c   **** 				}
  84:BLEclient.c   **** 			}
  85:BLEclient.c   **** 			else
  86:BLEclient.c   **** 			{
  87:BLEclient.c   **** 				ble_state = BLE_SCANNING;
  88:BLEclient.c   **** 			}
  89:BLEclient.c   **** 		break;
  90:BLEclient.c   ****             
  91:BLEclient.c   ****         case CYBLE_EVT_TIMEOUT:
  92:BLEclient.c   ****             restartScanning = TRUE;
  93:BLEclient.c   **** 		break;
  94:BLEclient.c   ****             
  95:BLEclient.c   **** 		case CYBLE_EVT_GAPC_SCAN_PROGRESS_RESULT:
  96:BLEclient.c   **** 			/* This event is generated whenever there is a device found*/
  97:BLEclient.c   **** 			if(CYBLE_STATE_CONNECTED != CyBle_GetState())	
  98:BLEclient.c   **** 			{
  99:BLEclient.c   **** 				/* If we are not connected to any peripheral device, then save the new device  
 100:BLEclient.c   **** 					information so to add it to our list */
 101:BLEclient.c   **** 				scan_report = *(CYBLE_GAPC_ADV_REPORT_T*) eventparam;
 102:BLEclient.c   **** 				
 103:BLEclient.c   **** 				/* Add the new device to existing list if not done yet, and compare the address with our
 104:BLEclient.c   **** 					required address.*/
 105:BLEclient.c   **** 				HandleScanDevices(&scan_report);
 106:BLEclient.c   **** 			}
 107:BLEclient.c   **** 			/* Update the LED status for BLE scanning mode*/
 108:BLEclient.c   **** 			ble_state = BLE_SCANNING;
 109:BLEclient.c   **** 		break;
 110:BLEclient.c   **** 			
 111:BLEclient.c   ****  		case CYBLE_EVT_GATT_CONNECT_IND:
 112:BLEclient.c   **** 
 113:BLEclient.c   **** 			/* When the peripheral device is connected, store the connection handle.*/
 114:BLEclient.c   ****             connHandle = *(CYBLE_CONN_HANDLE_T *)eventparam;
 115:BLEclient.c   ****             break;
 116:BLEclient.c   **** 			
 117:BLEclient.c   **** 		case CYBLE_EVT_GATT_DISCONNECT_IND:
 118:BLEclient.c   **** 			/* When the peripheral device is disconnected, reset variables*/
 119:BLEclient.c   **** 			break;
 120:BLEclient.c   **** 			
 121:BLEclient.c   **** 		case CYBLE_EVT_GAP_DEVICE_CONNECTED:
 122:BLEclient.c   **** 			/* The Device is connected now. Start Attributes discovery process.*/
 123:BLEclient.c   **** 			apiResult = CyBle_GattcStartDiscovery(connHandle);
 124:BLEclient.c   **** 			
 125:BLEclient.c   **** 			if(apiResult != CYBLE_ERROR_OK)
 126:BLEclient.c   **** 			{
 127:BLEclient.c   **** 
 128:BLEclient.c   **** 			}
ARM GAS  C:\Users\cnpan\AppData\Local\Temp\cc94LODs.s 			page 5


 129:BLEclient.c   **** 			/* Update the LED status for BLE discovery mode*/
 130:BLEclient.c   **** 			ble_state = BLE_SERVICE_DISCOVERY;
 131:BLEclient.c   ****         break;
 132:BLEclient.c   **** 			
 133:BLEclient.c   **** 		case CYBLE_EVT_GAP_DEVICE_DISCONNECTED:
 134:BLEclient.c   **** 			/* Reset all saved peripheral Addresses */
 135:BLEclient.c   **** 			for(i=0;i<addedDevices;i++)
 136:BLEclient.c   **** 			{
 137:BLEclient.c   **** 				list_of_devices[i].peerBdAddr[0] = FALSE;
 138:BLEclient.c   **** 				list_of_devices[i].peerBdAddr[1] = FALSE;
 139:BLEclient.c   **** 				list_of_devices[i].peerBdAddr[2] = FALSE;
 140:BLEclient.c   **** 				list_of_devices[i].peerBdAddr[3] = FALSE;
 141:BLEclient.c   **** 				list_of_devices[i].peerBdAddr[4] = FALSE;
 142:BLEclient.c   **** 				list_of_devices[i].peerBdAddr[5] = FALSE;
 143:BLEclient.c   **** 			}
 144:BLEclient.c   **** 			/* Reset application Flags on BLE Disconnect */
 145:BLEclient.c   **** 			addedDevices = FALSE;
 146:BLEclient.c   **** 			peripheralFound = FALSE;
 147:BLEclient.c   **** 			deviceConnected = FALSE;
 148:BLEclient.c   **** 			iasLevel = FALSE;
 149:BLEclient.c   **** 			ble_state = BLE_DISCONNECTED;
 150:BLEclient.c   ****             memset(deviceName, 0, sizeof(deviceName));
 151:BLEclient.c   **** 			
 152:BLEclient.c   **** 			/* Set the flag for rescanning after wakeup */
 153:BLEclient.c   **** 			restartScanning = TRUE;
 154:BLEclient.c   **** 			
 155:BLEclient.c   **** 			/* Update LED Status for Disconnection */
 156:BLEclient.c   **** 			HandleLEDs(ble_state);
 157:BLEclient.c   **** 			if(apiResult != CYBLE_ERROR_OK)
 158:BLEclient.c   **** 			{
 159:BLEclient.c   **** 			}
 160:BLEclient.c   **** 			break;
 161:BLEclient.c   **** 			
 162:BLEclient.c   **** 		case CYBLE_EVT_GATTC_DISCOVERY_COMPLETE:
 163:BLEclient.c   **** 			/* This event is generated whenever the discovery procedure is complete*/
 164:BLEclient.c   **** 			
 165:BLEclient.c   **** 			/*Set the Device connected flag*/
 166:BLEclient.c   **** 			deviceConnected = TRUE;
 167:BLEclient.c   **** 			
 168:BLEclient.c   **** 			/* Update the LED status for BLE discovery mode*/
 169:BLEclient.c   **** 			ble_state = BLE_CONNECTED;
 170:BLEclient.c   **** 		break;
 171:BLEclient.c   ****             
 172:BLEclient.c   ****         case CYBLE_EVT_GATTC_READ_RSP:
 173:BLEclient.c   ****             readResponse = (CYBLE_GATTC_READ_RSP_PARAM_T *) eventparam;
 174:BLEclient.c   ****             
 175:BLEclient.c   ****             printf("Value: %x \r\n", readResponse->value.val[0]);
 176:BLEclient.c   ****         break;    
 177:BLEclient.c   ****             
 178:BLEclient.c   **** 		default:
 179:BLEclient.c   **** 			
 180:BLEclient.c   **** 		break;
  98              		.loc 1 180 0
  99 0026 03E1     		b	.L16
 100              	.L6:
  65:BLEclient.c   **** 	{
 101              		.loc 1 65 0
ARM GAS  C:\Users\cnpan\AppData\Local\Temp\cc94LODs.s 			page 6


 102 0028 202B     		cmp	r3, #32
 103 002a 33D0     		beq	.L8
 104 002c 272B     		cmp	r3, #39
 105 002e 4ED0     		beq	.L9
 106              		.loc 1 180 0
 107 0030 FEE0     		b	.L16
 108              	.L4:
  65:BLEclient.c   **** 	{
 109              		.loc 1 65 0
 110 0032 422B     		cmp	r3, #66
 111 0034 00D1     		bne	.LCB43
 112 0036 F8E0     		b	.L23	@long jump
 113              	.LCB43:
 114 0038 04D8     		bhi	.L11
 115 003a 2B2B     		cmp	r3, #43
 116 003c 0FD0     		beq	.L12
 117 003e 412B     		cmp	r3, #65
 118 0040 3CD0     		beq	.L13
 119              		.loc 1 180 0
 120 0042 F5E0     		b	.L16
 121              	.L11:
  65:BLEclient.c   **** 	{
 122              		.loc 1 65 0
 123 0044 492B     		cmp	r3, #73
 124 0046 00D1     		bne	.LCB55
 125 0048 E3E0     		b	.L14	@long jump
 126              	.LCB55:
 127 004a 1222     		movs	r2, #18
 128 004c FF32     		adds	r2, r2, #255
 129 004e 9342     		cmp	r3, r2
 130 0050 00D1     		bne	.LCB59
 131 0052 D7E0     		b	.L15	@long jump
 132              	.LCB59:
 133              		.loc 1 180 0
 134 0054 ECE0     		b	.L16
 135              	.L7:
  69:BLEclient.c   **** 		break;
 136              		.loc 1 69 0
 137 0056 784B     		ldr	r3, .L25
 138 0058 0122     		movs	r2, #1
 139 005a 1A70     		strb	r2, [r3]
  70:BLEclient.c   **** 			
 140              		.loc 1 70 0
 141 005c E8E0     		b	.L16
 142              	.L12:
  74:BLEclient.c   **** 			{
 143              		.loc 1 74 0
 144 005e 774B     		ldr	r3, .L25+4
 145 0060 1B78     		ldrb	r3, [r3]
 146 0062 052B     		cmp	r3, #5
 147 0064 0ED1     		bne	.L17
  76:BLEclient.c   **** 				
 148              		.loc 1 76 0
 149 0066 764B     		ldr	r3, .L25+8
 150 0068 0122     		movs	r2, #1
 151 006a 1A70     		strb	r2, [r3]
  78:BLEclient.c   **** 				{
ARM GAS  C:\Users\cnpan\AppData\Local\Temp\cc94LODs.s 			page 7


 152              		.loc 1 78 0
 153 006c 754B     		ldr	r3, .L25+12
 154 006e 1B78     		ldrb	r3, [r3]
 155 0070 002B     		cmp	r3, #0
 156 0072 00D0     		beq	.LCB81
 157 0074 DBE0     		b	.L24	@long jump
 158              	.LCB81:
  81:BLEclient.c   **** 					restartScanning = TRUE;
 159              		.loc 1 81 0
 160 0076 0120     		movs	r0, #1
 161 0078 FFF7FEFF 		bl	Status_LED_Write
  82:BLEclient.c   **** 				}
 162              		.loc 1 82 0
 163 007c 6E4B     		ldr	r3, .L25
 164 007e 0122     		movs	r2, #1
 165 0080 1A70     		strb	r2, [r3]
  89:BLEclient.c   ****             
 166              		.loc 1 89 0
 167 0082 D4E0     		b	.L24
 168              	.L17:
  87:BLEclient.c   **** 			}
 169              		.loc 1 87 0
 170 0084 6E4B     		ldr	r3, .L25+8
 171 0086 0222     		movs	r2, #2
 172 0088 1A70     		strb	r2, [r3]
  89:BLEclient.c   ****             
 173              		.loc 1 89 0
 174 008a D0E0     		b	.L24
 175              	.L5:
  92:BLEclient.c   **** 		break;
 176              		.loc 1 92 0
 177 008c 6A4B     		ldr	r3, .L25
 178 008e 0122     		movs	r2, #1
 179 0090 1A70     		strb	r2, [r3]
  93:BLEclient.c   ****             
 180              		.loc 1 93 0
 181 0092 CDE0     		b	.L16
 182              	.L8:
  97:BLEclient.c   **** 			{
 183              		.loc 1 97 0
 184 0094 694B     		ldr	r3, .L25+4
 185 0096 1B78     		ldrb	r3, [r3]
 186 0098 022B     		cmp	r3, #2
 187 009a 0BD0     		beq	.L20
 101:BLEclient.c   **** 				
 188              		.loc 1 101 0
 189 009c 0C23     		movs	r3, #12
 190 009e FB18     		adds	r3, r7, r3
 191 00a0 3A68     		ldr	r2, [r7]
 192 00a2 13CA     		ldmia	r2!, {r0, r1, r4}
 193 00a4 13C3     		stmia	r3!, {r0, r1, r4}
 194 00a6 03CA     		ldmia	r2!, {r0, r1}
 195 00a8 03C3     		stmia	r3!, {r0, r1}
 105:BLEclient.c   **** 			}
 196              		.loc 1 105 0
 197 00aa 0C23     		movs	r3, #12
 198 00ac FB18     		adds	r3, r7, r3
ARM GAS  C:\Users\cnpan\AppData\Local\Temp\cc94LODs.s 			page 8


 199 00ae 1800     		movs	r0, r3
 200 00b0 FFF7FEFF 		bl	HandleScanDevices
 201              	.L20:
 108:BLEclient.c   **** 		break;
 202              		.loc 1 108 0
 203 00b4 624B     		ldr	r3, .L25+8
 204 00b6 0222     		movs	r2, #2
 205 00b8 1A70     		strb	r2, [r3]
 109:BLEclient.c   **** 			
 206              		.loc 1 109 0
 207 00ba B9E0     		b	.L16
 208              	.L13:
 114:BLEclient.c   ****             break;
 209              		.loc 1 114 0
 210 00bc 624A     		ldr	r2, .L25+16
 211 00be 3B68     		ldr	r3, [r7]
 212 00c0 1000     		movs	r0, r2
 213 00c2 1900     		movs	r1, r3
 214 00c4 0223     		movs	r3, #2
 215 00c6 1A00     		movs	r2, r3
 216 00c8 FFF7FEFF 		bl	memcpy
 115:BLEclient.c   **** 			
 217              		.loc 1 115 0
 218 00cc B0E0     		b	.L16
 219              	.L9:
 123:BLEclient.c   **** 			
 220              		.loc 1 123 0
 221 00ce 2423     		movs	r3, #36
 222 00d0 FC18     		adds	r4, r7, r3
 223 00d2 5D4B     		ldr	r3, .L25+16
 224 00d4 1A78     		ldrb	r2, [r3]
 225 00d6 5B78     		ldrb	r3, [r3, #1]
 226 00d8 1B02     		lsls	r3, r3, #8
 227 00da 1A43     		orrs	r2, r3
 228 00dc 0023     		movs	r3, #0
 229 00de 1204     		lsls	r2, r2, #16
 230 00e0 120C     		lsrs	r2, r2, #16
 231 00e2 1B0C     		lsrs	r3, r3, #16
 232 00e4 1B04     		lsls	r3, r3, #16
 233 00e6 1343     		orrs	r3, r2
 234 00e8 1800     		movs	r0, r3
 235 00ea FFF7FEFF 		bl	CyBle_GattcStartDiscovery
 236 00ee 0300     		movs	r3, r0
 237 00f0 2380     		strh	r3, [r4]
 130:BLEclient.c   ****         break;
 238              		.loc 1 130 0
 239 00f2 534B     		ldr	r3, .L25+8
 240 00f4 0322     		movs	r2, #3
 241 00f6 1A70     		strb	r2, [r3]
 131:BLEclient.c   **** 			
 242              		.loc 1 131 0
 243 00f8 9AE0     		b	.L16
 244              	.L3:
 135:BLEclient.c   **** 			{
 245              		.loc 1 135 0
 246 00fa 2623     		movs	r3, #38
 247 00fc FB18     		adds	r3, r7, r3
ARM GAS  C:\Users\cnpan\AppData\Local\Temp\cc94LODs.s 			page 9


 248 00fe 0022     		movs	r2, #0
 249 0100 1A80     		strh	r2, [r3]
 250 0102 59E0     		b	.L21
 251              	.L22:
 137:BLEclient.c   **** 				list_of_devices[i].peerBdAddr[1] = FALSE;
 252              		.loc 1 137 0 discriminator 3
 253 0104 2623     		movs	r3, #38
 254 0106 FB18     		adds	r3, r7, r3
 255 0108 1A88     		ldrh	r2, [r3]
 256 010a 5049     		ldr	r1, .L25+20
 257 010c 1300     		movs	r3, r2
 258 010e 9B00     		lsls	r3, r3, #2
 259 0110 9B18     		adds	r3, r3, r2
 260 0112 9B00     		lsls	r3, r3, #2
 261 0114 CB18     		adds	r3, r1, r3
 262 0116 0433     		adds	r3, r3, #4
 263 0118 1B68     		ldr	r3, [r3]
 264 011a 0022     		movs	r2, #0
 265 011c 1A70     		strb	r2, [r3]
 138:BLEclient.c   **** 				list_of_devices[i].peerBdAddr[2] = FALSE;
 266              		.loc 1 138 0 discriminator 3
 267 011e 2623     		movs	r3, #38
 268 0120 FB18     		adds	r3, r7, r3
 269 0122 1A88     		ldrh	r2, [r3]
 270 0124 4949     		ldr	r1, .L25+20
 271 0126 1300     		movs	r3, r2
 272 0128 9B00     		lsls	r3, r3, #2
 273 012a 9B18     		adds	r3, r3, r2
 274 012c 9B00     		lsls	r3, r3, #2
 275 012e CB18     		adds	r3, r1, r3
 276 0130 0433     		adds	r3, r3, #4
 277 0132 1B68     		ldr	r3, [r3]
 278 0134 0133     		adds	r3, r3, #1
 279 0136 0022     		movs	r2, #0
 280 0138 1A70     		strb	r2, [r3]
 139:BLEclient.c   **** 				list_of_devices[i].peerBdAddr[3] = FALSE;
 281              		.loc 1 139 0 discriminator 3
 282 013a 2623     		movs	r3, #38
 283 013c FB18     		adds	r3, r7, r3
 284 013e 1A88     		ldrh	r2, [r3]
 285 0140 4249     		ldr	r1, .L25+20
 286 0142 1300     		movs	r3, r2
 287 0144 9B00     		lsls	r3, r3, #2
 288 0146 9B18     		adds	r3, r3, r2
 289 0148 9B00     		lsls	r3, r3, #2
 290 014a CB18     		adds	r3, r1, r3
 291 014c 0433     		adds	r3, r3, #4
 292 014e 1B68     		ldr	r3, [r3]
 293 0150 0233     		adds	r3, r3, #2
 294 0152 0022     		movs	r2, #0
 295 0154 1A70     		strb	r2, [r3]
 140:BLEclient.c   **** 				list_of_devices[i].peerBdAddr[4] = FALSE;
 296              		.loc 1 140 0 discriminator 3
 297 0156 2623     		movs	r3, #38
 298 0158 FB18     		adds	r3, r7, r3
 299 015a 1A88     		ldrh	r2, [r3]
 300 015c 3B49     		ldr	r1, .L25+20
ARM GAS  C:\Users\cnpan\AppData\Local\Temp\cc94LODs.s 			page 10


 301 015e 1300     		movs	r3, r2
 302 0160 9B00     		lsls	r3, r3, #2
 303 0162 9B18     		adds	r3, r3, r2
 304 0164 9B00     		lsls	r3, r3, #2
 305 0166 CB18     		adds	r3, r1, r3
 306 0168 0433     		adds	r3, r3, #4
 307 016a 1B68     		ldr	r3, [r3]
 308 016c 0333     		adds	r3, r3, #3
 309 016e 0022     		movs	r2, #0
 310 0170 1A70     		strb	r2, [r3]
 141:BLEclient.c   **** 				list_of_devices[i].peerBdAddr[5] = FALSE;
 311              		.loc 1 141 0 discriminator 3
 312 0172 2623     		movs	r3, #38
 313 0174 FB18     		adds	r3, r7, r3
 314 0176 1A88     		ldrh	r2, [r3]
 315 0178 3449     		ldr	r1, .L25+20
 316 017a 1300     		movs	r3, r2
 317 017c 9B00     		lsls	r3, r3, #2
 318 017e 9B18     		adds	r3, r3, r2
 319 0180 9B00     		lsls	r3, r3, #2
 320 0182 CB18     		adds	r3, r1, r3
 321 0184 0433     		adds	r3, r3, #4
 322 0186 1B68     		ldr	r3, [r3]
 323 0188 0433     		adds	r3, r3, #4
 324 018a 0022     		movs	r2, #0
 325 018c 1A70     		strb	r2, [r3]
 142:BLEclient.c   **** 			}
 326              		.loc 1 142 0 discriminator 3
 327 018e 2623     		movs	r3, #38
 328 0190 FB18     		adds	r3, r7, r3
 329 0192 1A88     		ldrh	r2, [r3]
 330 0194 2D49     		ldr	r1, .L25+20
 331 0196 1300     		movs	r3, r2
 332 0198 9B00     		lsls	r3, r3, #2
 333 019a 9B18     		adds	r3, r3, r2
 334 019c 9B00     		lsls	r3, r3, #2
 335 019e CB18     		adds	r3, r1, r3
 336 01a0 0433     		adds	r3, r3, #4
 337 01a2 1B68     		ldr	r3, [r3]
 338 01a4 0533     		adds	r3, r3, #5
 339 01a6 0022     		movs	r2, #0
 340 01a8 1A70     		strb	r2, [r3]
 135:BLEclient.c   **** 			{
 341              		.loc 1 135 0 discriminator 3
 342 01aa 2623     		movs	r3, #38
 343 01ac FB18     		adds	r3, r7, r3
 344 01ae 1A88     		ldrh	r2, [r3]
 345 01b0 2623     		movs	r3, #38
 346 01b2 FB18     		adds	r3, r7, r3
 347 01b4 0132     		adds	r2, r2, #1
 348 01b6 1A80     		strh	r2, [r3]
 349              	.L21:
 135:BLEclient.c   **** 			{
 350              		.loc 1 135 0 is_stmt 0 discriminator 1
 351 01b8 254B     		ldr	r3, .L25+24
 352 01ba 1B78     		ldrb	r3, [r3]
 353 01bc 9BB2     		uxth	r3, r3
ARM GAS  C:\Users\cnpan\AppData\Local\Temp\cc94LODs.s 			page 11


 354 01be 2622     		movs	r2, #38
 355 01c0 BA18     		adds	r2, r7, r2
 356 01c2 1288     		ldrh	r2, [r2]
 357 01c4 9A42     		cmp	r2, r3
 358 01c6 9DD3     		bcc	.L22
 145:BLEclient.c   **** 			peripheralFound = FALSE;
 359              		.loc 1 145 0 is_stmt 1
 360 01c8 214B     		ldr	r3, .L25+24
 361 01ca 0022     		movs	r2, #0
 362 01cc 1A70     		strb	r2, [r3]
 146:BLEclient.c   **** 			deviceConnected = FALSE;
 363              		.loc 1 146 0
 364 01ce 1D4B     		ldr	r3, .L25+12
 365 01d0 0022     		movs	r2, #0
 366 01d2 1A70     		strb	r2, [r3]
 147:BLEclient.c   **** 			iasLevel = FALSE;
 367              		.loc 1 147 0
 368 01d4 1F4B     		ldr	r3, .L25+28
 369 01d6 0022     		movs	r2, #0
 370 01d8 1A70     		strb	r2, [r3]
 148:BLEclient.c   **** 			ble_state = BLE_DISCONNECTED;
 371              		.loc 1 148 0
 372 01da 1F4B     		ldr	r3, .L25+32
 373 01dc 0022     		movs	r2, #0
 374 01de 1A70     		strb	r2, [r3]
 149:BLEclient.c   ****             memset(deviceName, 0, sizeof(deviceName));
 375              		.loc 1 149 0
 376 01e0 174B     		ldr	r3, .L25+8
 377 01e2 0122     		movs	r2, #1
 378 01e4 1A70     		strb	r2, [r3]
 150:BLEclient.c   **** 			
 379              		.loc 1 150 0
 380 01e6 1D4B     		ldr	r3, .L25+36
 381 01e8 1E22     		movs	r2, #30
 382 01ea 0021     		movs	r1, #0
 383 01ec 1800     		movs	r0, r3
 384 01ee FFF7FEFF 		bl	memset
 153:BLEclient.c   **** 			
 385              		.loc 1 153 0
 386 01f2 114B     		ldr	r3, .L25
 387 01f4 0122     		movs	r2, #1
 388 01f6 1A70     		strb	r2, [r3]
 156:BLEclient.c   **** 			if(apiResult != CYBLE_ERROR_OK)
 389              		.loc 1 156 0
 390 01f8 114B     		ldr	r3, .L25+8
 391 01fa 1B78     		ldrb	r3, [r3]
 392 01fc 1800     		movs	r0, r3
 393 01fe FFF7FEFF 		bl	HandleLEDs
 160:BLEclient.c   **** 			
 394              		.loc 1 160 0
 395 0202 15E0     		b	.L16
 396              	.L15:
 166:BLEclient.c   **** 			
 397              		.loc 1 166 0
 398 0204 134B     		ldr	r3, .L25+28
 399 0206 0122     		movs	r2, #1
 400 0208 1A70     		strb	r2, [r3]
ARM GAS  C:\Users\cnpan\AppData\Local\Temp\cc94LODs.s 			page 12


 169:BLEclient.c   **** 		break;
 401              		.loc 1 169 0
 402 020a 0D4B     		ldr	r3, .L25+8
 403 020c 0422     		movs	r2, #4
 404 020e 1A70     		strb	r2, [r3]
 170:BLEclient.c   ****             
 405              		.loc 1 170 0
 406 0210 0EE0     		b	.L16
 407              	.L14:
 173:BLEclient.c   ****             
 408              		.loc 1 173 0
 409 0212 3B68     		ldr	r3, [r7]
 410 0214 3B62     		str	r3, [r7, #32]
 175:BLEclient.c   ****         break;    
 411              		.loc 1 175 0
 412 0216 3B6A     		ldr	r3, [r7, #32]
 413 0218 5B68     		ldr	r3, [r3, #4]
 414 021a 1B78     		ldrb	r3, [r3]
 415 021c 1A00     		movs	r2, r3
 416 021e 104B     		ldr	r3, .L25+40
 417 0220 1100     		movs	r1, r2
 418 0222 1800     		movs	r0, r3
 419 0224 FFF7FEFF 		bl	printf
 176:BLEclient.c   ****             
 420              		.loc 1 176 0
 421 0228 02E0     		b	.L16
 422              	.L23:
 119:BLEclient.c   **** 			
 423              		.loc 1 119 0
 424 022a C046     		nop
 425 022c 00E0     		b	.L16
 426              	.L24:
  89:BLEclient.c   ****             
 427              		.loc 1 89 0
 428 022e C046     		nop
 429              	.L16:
 181:BLEclient.c   **** 	}
 182:BLEclient.c   **** }
 430              		.loc 1 182 0 discriminator 2
 431 0230 C046     		nop
 432 0232 BD46     		mov	sp, r7
 433 0234 0BB0     		add	sp, sp, #44
 434              		@ sp needed
 435 0236 90BD     		pop	{r4, r7, pc}
 436              	.L26:
 437              		.align	2
 438              	.L25:
 439 0238 00000000 		.word	restartScanning
 440 023c 00000000 		.word	cyBle_state
 441 0240 00000000 		.word	ble_state
 442 0244 00000000 		.word	peripheralFound
 443 0248 00000000 		.word	connHandle
 444 024c 00000000 		.word	list_of_devices
 445 0250 00000000 		.word	addedDevices
 446 0254 00000000 		.word	deviceConnected
 447 0258 00000000 		.word	iasLevel
 448 025c 00000000 		.word	deviceName
ARM GAS  C:\Users\cnpan\AppData\Local\Temp\cc94LODs.s 			page 13


 449 0260 00000000 		.word	.LC10
 450              		.cfi_endproc
 451              	.LFE38:
 452              		.size	ApplicationEventHandler, .-ApplicationEventHandler
 453              		.section	.rodata
 454 000d 000000   		.align	2
 455              	.LC17:
 456 0010 2564200D 		.ascii	"%d \015\012\000"
 456      0A00
 457              		.section	.text.HandleScanDevices,"ax",%progbits
 458              		.align	2
 459              		.global	HandleScanDevices
 460              		.code	16
 461              		.thumb_func
 462              		.type	HandleScanDevices, %function
 463              	HandleScanDevices:
 464              	.LFB39:
 183:BLEclient.c   **** 
 184:BLEclient.c   **** void HandleScanDevices(CYBLE_GAPC_ADV_REPORT_T* scanReport)
 185:BLEclient.c   **** {
 465              		.loc 1 185 0
 466              		.cfi_startproc
 467              		@ args = 0, pretend = 0, frame = 16
 468              		@ frame_needed = 1, uses_anonymous_args = 0
 469 0000 80B5     		push	{r7, lr}
 470              		.cfi_def_cfa_offset 8
 471              		.cfi_offset 7, -8
 472              		.cfi_offset 14, -4
 473 0002 84B0     		sub	sp, sp, #16
 474              		.cfi_def_cfa_offset 24
 475 0004 00AF     		add	r7, sp, #0
 476              		.cfi_def_cfa_register 7
 477 0006 7860     		str	r0, [r7, #4]
 186:BLEclient.c   **** 	uint16 i;
 187:BLEclient.c   **** 	uint8 newDevice = TRUE;
 478              		.loc 1 187 0
 479 0008 0D23     		movs	r3, #13
 480 000a FB18     		adds	r3, r7, r3
 481 000c 0122     		movs	r2, #1
 482 000e 1A70     		strb	r2, [r3]
 188:BLEclient.c   **** 
 189:BLEclient.c   **** 	if((addedDevices < CYBLE_MAX_ADV_DEVICES))
 483              		.loc 1 189 0
 484 0010 A24B     		ldr	r3, .L42
 485 0012 1B78     		ldrb	r3, [r3]
 486 0014 092B     		cmp	r3, #9
 487 0016 00D9     		bls	.LCB380
 488 0018 3CE1     		b	.L41	@long jump
 489              	.LCB380:
 190:BLEclient.c   **** 	{
 191:BLEclient.c   **** 		for(i = 0; i < addedDevices; i++)
 490              		.loc 1 191 0
 491 001a 0E23     		movs	r3, #14
 492 001c FB18     		adds	r3, r7, r3
 493 001e 0022     		movs	r2, #0
 494 0020 1A80     		strh	r2, [r3]
 495 0022 32E0     		b	.L29
ARM GAS  C:\Users\cnpan\AppData\Local\Temp\cc94LODs.s 			page 14


 496              	.L32:
 192:BLEclient.c   **** 		{
 193:BLEclient.c   **** 			/* Initialize the peerBdAddr element of our list.*/
 194:BLEclient.c   **** 			list_of_devices[i].peerBdAddr = &address_store[i][0];
 497              		.loc 1 194 0
 498 0024 0E23     		movs	r3, #14
 499 0026 FB18     		adds	r3, r7, r3
 500 0028 1A88     		ldrh	r2, [r3]
 501 002a 0E23     		movs	r3, #14
 502 002c FB18     		adds	r3, r7, r3
 503 002e 1988     		ldrh	r1, [r3]
 504 0030 0B00     		movs	r3, r1
 505 0032 5B00     		lsls	r3, r3, #1
 506 0034 5B18     		adds	r3, r3, r1
 507 0036 5B00     		lsls	r3, r3, #1
 508 0038 9949     		ldr	r1, .L42+4
 509 003a 5918     		adds	r1, r3, r1
 510 003c 9948     		ldr	r0, .L42+8
 511 003e 1300     		movs	r3, r2
 512 0040 9B00     		lsls	r3, r3, #2
 513 0042 9B18     		adds	r3, r3, r2
 514 0044 9B00     		lsls	r3, r3, #2
 515 0046 C318     		adds	r3, r0, r3
 516 0048 0433     		adds	r3, r3, #4
 517 004a 1960     		str	r1, [r3]
 195:BLEclient.c   **** 			
 196:BLEclient.c   **** 			/* In this for loop, compare the new device address with the existing addresses in the list to 
 197:BLEclient.c   **** 				determine if the address is new or not. If the address exists in the list, then the device 
 198:BLEclient.c   **** 				is not new.*/
 199:BLEclient.c   **** 			if(FALSE == memcmp(list_of_devices[i].peerBdAddr, scanReport->peerBdAddr, ADV_ADDR_LEN))
 518              		.loc 1 199 0
 519 004c 0E23     		movs	r3, #14
 520 004e FB18     		adds	r3, r7, r3
 521 0050 1A88     		ldrh	r2, [r3]
 522 0052 9449     		ldr	r1, .L42+8
 523 0054 1300     		movs	r3, r2
 524 0056 9B00     		lsls	r3, r3, #2
 525 0058 9B18     		adds	r3, r3, r2
 526 005a 9B00     		lsls	r3, r3, #2
 527 005c CB18     		adds	r3, r1, r3
 528 005e 0433     		adds	r3, r3, #4
 529 0060 1868     		ldr	r0, [r3]
 530 0062 7B68     		ldr	r3, [r7, #4]
 531 0064 5B68     		ldr	r3, [r3, #4]
 532 0066 0622     		movs	r2, #6
 533 0068 1900     		movs	r1, r3
 534 006a FFF7FEFF 		bl	memcmp
 535 006e 031E     		subs	r3, r0, #0
 536 0070 04D1     		bne	.L30
 200:BLEclient.c   **** 			{
 201:BLEclient.c   **** 				newDevice = FALSE;
 537              		.loc 1 201 0
 538 0072 0D23     		movs	r3, #13
 539 0074 FB18     		adds	r3, r7, r3
 540 0076 0022     		movs	r2, #0
 541 0078 1A70     		strb	r2, [r3]
 202:BLEclient.c   **** 				break;
ARM GAS  C:\Users\cnpan\AppData\Local\Temp\cc94LODs.s 			page 15


 542              		.loc 1 202 0
 543 007a 0EE0     		b	.L31
 544              	.L30:
 191:BLEclient.c   **** 		{
 545              		.loc 1 191 0 discriminator 2
 546 007c 0E23     		movs	r3, #14
 547 007e FB18     		adds	r3, r7, r3
 548 0080 1A88     		ldrh	r2, [r3]
 549 0082 0E23     		movs	r3, #14
 550 0084 FB18     		adds	r3, r7, r3
 551 0086 0132     		adds	r2, r2, #1
 552 0088 1A80     		strh	r2, [r3]
 553              	.L29:
 191:BLEclient.c   **** 		{
 554              		.loc 1 191 0 is_stmt 0 discriminator 1
 555 008a 844B     		ldr	r3, .L42
 556 008c 1B78     		ldrb	r3, [r3]
 557 008e 9BB2     		uxth	r3, r3
 558 0090 0E22     		movs	r2, #14
 559 0092 BA18     		adds	r2, r7, r2
 560 0094 1288     		ldrh	r2, [r2]
 561 0096 9A42     		cmp	r2, r3
 562 0098 C4D3     		bcc	.L32
 563              	.L31:
 203:BLEclient.c   **** 			}
 204:BLEclient.c   **** 		}
 205:BLEclient.c   **** 		
 206:BLEclient.c   **** 		if(newDevice)
 564              		.loc 1 206 0 is_stmt 1
 565 009a 0D23     		movs	r3, #13
 566 009c FB18     		adds	r3, r7, r3
 567 009e 1B78     		ldrb	r3, [r3]
 568 00a0 002B     		cmp	r3, #0
 569 00a2 00D1     		bne	.LCB458
 570 00a4 F2E0     		b	.L33	@long jump
 571              	.LCB458:
 207:BLEclient.c   **** 		{
 208:BLEclient.c   **** 			/* If the device address is new, then add the device to our existing list and compare the addres
 209:BLEclient.c   **** 				with our expected address to see if the desired peripheral is advertising or not.*/
 210:BLEclient.c   **** 			list_of_devices[addedDevices].peerBdAddr = &address_store[addedDevices][0];
 572              		.loc 1 210 0
 573 00a6 7D4B     		ldr	r3, .L42
 574 00a8 1B78     		ldrb	r3, [r3]
 575 00aa 1800     		movs	r0, r3
 576 00ac 7B4B     		ldr	r3, .L42
 577 00ae 1B78     		ldrb	r3, [r3]
 578 00b0 1A00     		movs	r2, r3
 579 00b2 1300     		movs	r3, r2
 580 00b4 5B00     		lsls	r3, r3, #1
 581 00b6 9B18     		adds	r3, r3, r2
 582 00b8 5B00     		lsls	r3, r3, #1
 583 00ba 794A     		ldr	r2, .L42+4
 584 00bc 9A18     		adds	r2, r3, r2
 585 00be 7949     		ldr	r1, .L42+8
 586 00c0 0300     		movs	r3, r0
 587 00c2 9B00     		lsls	r3, r3, #2
 588 00c4 1B18     		adds	r3, r3, r0
ARM GAS  C:\Users\cnpan\AppData\Local\Temp\cc94LODs.s 			page 16


 589 00c6 9B00     		lsls	r3, r3, #2
 590 00c8 CB18     		adds	r3, r1, r3
 591 00ca 0433     		adds	r3, r3, #4
 592 00cc 1A60     		str	r2, [r3]
 211:BLEclient.c   **** 			/* Store the data*/
 212:BLEclient.c   **** 			list_of_devices[addedDevices].dataLen = scanReport->dataLen;
 593              		.loc 1 212 0
 594 00ce 734B     		ldr	r3, .L42
 595 00d0 1B78     		ldrb	r3, [r3]
 596 00d2 1900     		movs	r1, r3
 597 00d4 7B68     		ldr	r3, [r7, #4]
 598 00d6 187A     		ldrb	r0, [r3, #8]
 599 00d8 724A     		ldr	r2, .L42+8
 600 00da 0B00     		movs	r3, r1
 601 00dc 9B00     		lsls	r3, r3, #2
 602 00de 5B18     		adds	r3, r3, r1
 603 00e0 9B00     		lsls	r3, r3, #2
 604 00e2 D318     		adds	r3, r2, r3
 605 00e4 0833     		adds	r3, r3, #8
 606 00e6 021C     		adds	r2, r0, #0
 607 00e8 1A70     		strb	r2, [r3]
 213:BLEclient.c   **** 			list_of_devices[addedDevices].data = scanReport->data;
 608              		.loc 1 213 0
 609 00ea 6C4B     		ldr	r3, .L42
 610 00ec 1B78     		ldrb	r3, [r3]
 611 00ee 1800     		movs	r0, r3
 612 00f0 7B68     		ldr	r3, [r7, #4]
 613 00f2 DA68     		ldr	r2, [r3, #12]
 614 00f4 6B49     		ldr	r1, .L42+8
 615 00f6 0300     		movs	r3, r0
 616 00f8 9B00     		lsls	r3, r3, #2
 617 00fa 1B18     		adds	r3, r3, r0
 618 00fc 9B00     		lsls	r3, r3, #2
 619 00fe CB18     		adds	r3, r1, r3
 620 0100 0C33     		adds	r3, r3, #12
 621 0102 1A60     		str	r2, [r3]
 214:BLEclient.c   **** 			list_of_devices[addedDevices].eventType = scanReport->eventType;
 622              		.loc 1 214 0
 623 0104 654B     		ldr	r3, .L42
 624 0106 1B78     		ldrb	r3, [r3]
 625 0108 1900     		movs	r1, r3
 626 010a 7B68     		ldr	r3, [r7, #4]
 627 010c 1878     		ldrb	r0, [r3]
 628 010e 654A     		ldr	r2, .L42+8
 629 0110 0B00     		movs	r3, r1
 630 0112 9B00     		lsls	r3, r3, #2
 631 0114 5B18     		adds	r3, r3, r1
 632 0116 9B00     		lsls	r3, r3, #2
 633 0118 011C     		adds	r1, r0, #0
 634 011a 9954     		strb	r1, [r3, r2]
 215:BLEclient.c   **** 			/* Record the address type, Public or Random, of the advertising peripheral.*/
 216:BLEclient.c   **** 			list_of_devices[addedDevices].peerAddrType = scanReport->peerAddrType;
 635              		.loc 1 216 0
 636 011c 5F4B     		ldr	r3, .L42
 637 011e 1B78     		ldrb	r3, [r3]
 638 0120 1900     		movs	r1, r3
 639 0122 7B68     		ldr	r3, [r7, #4]
ARM GAS  C:\Users\cnpan\AppData\Local\Temp\cc94LODs.s 			page 17


 640 0124 5878     		ldrb	r0, [r3, #1]
 641 0126 5F4A     		ldr	r2, .L42+8
 642 0128 0B00     		movs	r3, r1
 643 012a 9B00     		lsls	r3, r3, #2
 644 012c 5B18     		adds	r3, r3, r1
 645 012e 9B00     		lsls	r3, r3, #2
 646 0130 D318     		adds	r3, r2, r3
 647 0132 0133     		adds	r3, r3, #1
 648 0134 021C     		adds	r2, r0, #0
 649 0136 1A70     		strb	r2, [r3]
 217:BLEclient.c   **** 			
 218:BLEclient.c   **** 			/* Save the BD addresses */
 219:BLEclient.c   ****             for (i=0; i<6; i++)
 650              		.loc 1 219 0
 651 0138 0E23     		movs	r3, #14
 652 013a FB18     		adds	r3, r7, r3
 653 013c 0022     		movs	r2, #0
 654 013e 1A80     		strh	r2, [r3]
 655 0140 1DE0     		b	.L34
 656              	.L35:
 220:BLEclient.c   ****             {
 221:BLEclient.c   ****                 list_of_devices[addedDevices].peerBdAddr[i] = scanReport->peerBdAddr[i];
 657              		.loc 1 221 0 discriminator 3
 658 0142 564B     		ldr	r3, .L42
 659 0144 1B78     		ldrb	r3, [r3]
 660 0146 1900     		movs	r1, r3
 661 0148 564A     		ldr	r2, .L42+8
 662 014a 0B00     		movs	r3, r1
 663 014c 9B00     		lsls	r3, r3, #2
 664 014e 5B18     		adds	r3, r3, r1
 665 0150 9B00     		lsls	r3, r3, #2
 666 0152 D318     		adds	r3, r2, r3
 667 0154 0433     		adds	r3, r3, #4
 668 0156 1A68     		ldr	r2, [r3]
 669 0158 0E23     		movs	r3, #14
 670 015a FB18     		adds	r3, r7, r3
 671 015c 1B88     		ldrh	r3, [r3]
 672 015e D218     		adds	r2, r2, r3
 673 0160 7B68     		ldr	r3, [r7, #4]
 674 0162 5968     		ldr	r1, [r3, #4]
 675 0164 0E23     		movs	r3, #14
 676 0166 FB18     		adds	r3, r7, r3
 677 0168 1B88     		ldrh	r3, [r3]
 678 016a CB18     		adds	r3, r1, r3
 679 016c 1B78     		ldrb	r3, [r3]
 680 016e 1370     		strb	r3, [r2]
 219:BLEclient.c   ****             {
 681              		.loc 1 219 0 discriminator 3
 682 0170 0E23     		movs	r3, #14
 683 0172 FB18     		adds	r3, r7, r3
 684 0174 1A88     		ldrh	r2, [r3]
 685 0176 0E23     		movs	r3, #14
 686 0178 FB18     		adds	r3, r7, r3
 687 017a 0132     		adds	r2, r2, #1
 688 017c 1A80     		strh	r2, [r3]
 689              	.L34:
 219:BLEclient.c   ****             {
ARM GAS  C:\Users\cnpan\AppData\Local\Temp\cc94LODs.s 			page 18


 690              		.loc 1 219 0 is_stmt 0 discriminator 1
 691 017e 0E23     		movs	r3, #14
 692 0180 FB18     		adds	r3, r7, r3
 693 0182 1B88     		ldrh	r3, [r3]
 694 0184 052B     		cmp	r3, #5
 695 0186 DCD9     		bls	.L35
 222:BLEclient.c   ****             }
 223:BLEclient.c   **** 			list_of_devices[addedDevices].rssi = scanReport->rssi;
 696              		.loc 1 223 0 is_stmt 1
 697 0188 444B     		ldr	r3, .L42
 698 018a 1B78     		ldrb	r3, [r3]
 699 018c 1900     		movs	r1, r3
 700 018e 7B68     		ldr	r3, [r7, #4]
 701 0190 1020     		movs	r0, #16
 702 0192 1856     		ldrsb	r0, [r3, r0]
 703 0194 434A     		ldr	r2, .L42+8
 704 0196 0B00     		movs	r3, r1
 705 0198 9B00     		lsls	r3, r3, #2
 706 019a 5B18     		adds	r3, r3, r1
 707 019c 9B00     		lsls	r3, r3, #2
 708 019e D318     		adds	r3, r2, r3
 709 01a0 1033     		adds	r3, r3, #16
 710 01a2 021C     		adds	r2, r0, #0
 711 01a4 1A70     		strb	r2, [r3]
 224:BLEclient.c   **** 			
 225:BLEclient.c   **** 			/* If the new BD address found matches the desired BD address, the Dongle has been found*/
 226:BLEclient.c   **** 			if(FALSE == memcmp(peripheralAddress, scanReport->peerBdAddr, ADV_ADDR_LEN))
 712              		.loc 1 226 0
 713 01a6 7B68     		ldr	r3, [r7, #4]
 714 01a8 5968     		ldr	r1, [r3, #4]
 715 01aa 3F4B     		ldr	r3, .L42+12
 716 01ac 0622     		movs	r2, #6
 717 01ae 1800     		movs	r0, r3
 718 01b0 FFF7FEFF 		bl	memcmp
 719 01b4 031E     		subs	r3, r0, #0
 720 01b6 63D1     		bne	.L36
 721              	.LBB2:
 227:BLEclient.c   **** 			{
 228:BLEclient.c   ****                 /* 'n' variable is used to count the characters for the deviceName */
 229:BLEclient.c   ****                 uint16 n = FALSE;
 722              		.loc 1 229 0
 723 01b8 0A23     		movs	r3, #10
 724 01ba FB18     		adds	r3, r7, r3
 725 01bc 0022     		movs	r2, #0
 726 01be 1A80     		strh	r2, [r3]
 230:BLEclient.c   **** 				/* Save the connected device BD Address and Type*/
 231:BLEclient.c   ****                 for (i=0; i<6; i++)
 727              		.loc 1 231 0
 728 01c0 0E23     		movs	r3, #14
 729 01c2 FB18     		adds	r3, r7, r3
 730 01c4 0022     		movs	r2, #0
 731 01c6 1A80     		strh	r2, [r3]
 732 01c8 12E0     		b	.L37
 733              	.L38:
 232:BLEclient.c   ****                 {
 233:BLEclient.c   ****                     connectPeriphDevice.bdAddr[i] = scanReport->peerBdAddr[i];
 734              		.loc 1 233 0 discriminator 3
ARM GAS  C:\Users\cnpan\AppData\Local\Temp\cc94LODs.s 			page 19


 735 01ca 0E23     		movs	r3, #14
 736 01cc FB18     		adds	r3, r7, r3
 737 01ce 1A88     		ldrh	r2, [r3]
 738 01d0 7B68     		ldr	r3, [r7, #4]
 739 01d2 5968     		ldr	r1, [r3, #4]
 740 01d4 0E23     		movs	r3, #14
 741 01d6 FB18     		adds	r3, r7, r3
 742 01d8 1B88     		ldrh	r3, [r3]
 743 01da CB18     		adds	r3, r1, r3
 744 01dc 1978     		ldrb	r1, [r3]
 745 01de 334B     		ldr	r3, .L42+16
 746 01e0 9954     		strb	r1, [r3, r2]
 231:BLEclient.c   ****                 {
 747              		.loc 1 231 0 discriminator 3
 748 01e2 0E23     		movs	r3, #14
 749 01e4 FB18     		adds	r3, r7, r3
 750 01e6 1A88     		ldrh	r2, [r3]
 751 01e8 0E23     		movs	r3, #14
 752 01ea FB18     		adds	r3, r7, r3
 753 01ec 0132     		adds	r2, r2, #1
 754 01ee 1A80     		strh	r2, [r3]
 755              	.L37:
 231:BLEclient.c   ****                 {
 756              		.loc 1 231 0 is_stmt 0 discriminator 1
 757 01f0 0E23     		movs	r3, #14
 758 01f2 FB18     		adds	r3, r7, r3
 759 01f4 1B88     		ldrh	r3, [r3]
 760 01f6 052B     		cmp	r3, #5
 761 01f8 E7D9     		bls	.L38
 234:BLEclient.c   ****                 }
 235:BLEclient.c   **** 				
 236:BLEclient.c   **** 				connectPeriphDevice.type = list_of_devices[addedDevices].peerAddrType;
 762              		.loc 1 236 0 is_stmt 1
 763 01fa 284B     		ldr	r3, .L42
 764 01fc 1B78     		ldrb	r3, [r3]
 765 01fe 1900     		movs	r1, r3
 766 0200 284A     		ldr	r2, .L42+8
 767 0202 0B00     		movs	r3, r1
 768 0204 9B00     		lsls	r3, r3, #2
 769 0206 5B18     		adds	r3, r3, r1
 770 0208 9B00     		lsls	r3, r3, #2
 771 020a D318     		adds	r3, r2, r3
 772 020c 0133     		adds	r3, r3, #1
 773 020e 1A78     		ldrb	r2, [r3]
 774 0210 264B     		ldr	r3, .L42+16
 775 0212 9A71     		strb	r2, [r3, #6]
 237:BLEclient.c   ****                 n = (uint8)scanReport->data[3];
 776              		.loc 1 237 0
 777 0214 7B68     		ldr	r3, [r7, #4]
 778 0216 DB68     		ldr	r3, [r3, #12]
 779 0218 0333     		adds	r3, r3, #3
 780 021a 1A78     		ldrb	r2, [r3]
 781 021c 0A23     		movs	r3, #10
 782 021e FB18     		adds	r3, r7, r3
 783 0220 1A80     		strh	r2, [r3]
 238:BLEclient.c   ****                 printf("%d \r\n", n);
 784              		.loc 1 238 0
ARM GAS  C:\Users\cnpan\AppData\Local\Temp\cc94LODs.s 			page 20


 785 0222 0A23     		movs	r3, #10
 786 0224 FB18     		adds	r3, r7, r3
 787 0226 1A88     		ldrh	r2, [r3]
 788 0228 214B     		ldr	r3, .L42+20
 789 022a 1100     		movs	r1, r2
 790 022c 1800     		movs	r0, r3
 791 022e FFF7FEFF 		bl	printf
 239:BLEclient.c   ****                 
 240:BLEclient.c   ****                 for (i=0; i < n-1; i++)
 792              		.loc 1 240 0
 793 0232 0E23     		movs	r3, #14
 794 0234 FB18     		adds	r3, r7, r3
 795 0236 0022     		movs	r2, #0
 796 0238 1A80     		strh	r2, [r3]
 797 023a 13E0     		b	.L39
 798              	.L40:
 241:BLEclient.c   ****                 {
 242:BLEclient.c   ****                     deviceName[i] = scanReport->data[5+i];
 799              		.loc 1 242 0 discriminator 3
 800 023c 0E23     		movs	r3, #14
 801 023e FB18     		adds	r3, r7, r3
 802 0240 1A88     		ldrh	r2, [r3]
 803 0242 7B68     		ldr	r3, [r7, #4]
 804 0244 DB68     		ldr	r3, [r3, #12]
 805 0246 0E21     		movs	r1, #14
 806 0248 7918     		adds	r1, r7, r1
 807 024a 0988     		ldrh	r1, [r1]
 808 024c 0531     		adds	r1, r1, #5
 809 024e 5B18     		adds	r3, r3, r1
 810 0250 1978     		ldrb	r1, [r3]
 811 0252 184B     		ldr	r3, .L42+24
 812 0254 9954     		strb	r1, [r3, r2]
 240:BLEclient.c   ****                 {
 813              		.loc 1 240 0 discriminator 3
 814 0256 0E23     		movs	r3, #14
 815 0258 FB18     		adds	r3, r7, r3
 816 025a 1A88     		ldrh	r2, [r3]
 817 025c 0E23     		movs	r3, #14
 818 025e FB18     		adds	r3, r7, r3
 819 0260 0132     		adds	r2, r2, #1
 820 0262 1A80     		strh	r2, [r3]
 821              	.L39:
 240:BLEclient.c   ****                 {
 822              		.loc 1 240 0 is_stmt 0 discriminator 1
 823 0264 0E23     		movs	r3, #14
 824 0266 FB18     		adds	r3, r7, r3
 825 0268 1A88     		ldrh	r2, [r3]
 826 026a 0A23     		movs	r3, #10
 827 026c FB18     		adds	r3, r7, r3
 828 026e 1B88     		ldrh	r3, [r3]
 829 0270 013B     		subs	r3, r3, #1
 830 0272 9A42     		cmp	r2, r3
 831 0274 E2DB     		blt	.L40
 243:BLEclient.c   ****                 }
 244:BLEclient.c   ****                 
 245:BLEclient.c   **** 				/* Set the flag to notify application of a connected peripheral device */
 246:BLEclient.c   **** 				peripheralFound = TRUE;
ARM GAS  C:\Users\cnpan\AppData\Local\Temp\cc94LODs.s 			page 21


 832              		.loc 1 246 0 is_stmt 1
 833 0276 104B     		ldr	r3, .L42+28
 834 0278 0122     		movs	r2, #1
 835 027a 1A70     		strb	r2, [r3]
 247:BLEclient.c   **** 
 248:BLEclient.c   **** 				/* Stop existing BLE Scan */
 249:BLEclient.c   **** 				CyBle_GapcStopScan();
 836              		.loc 1 249 0
 837 027c FFF7FEFF 		bl	CyBle_GapcStopScan
 838              	.L36:
 839              	.LBE2:
 250:BLEclient.c   **** 			}
 251:BLEclient.c   **** 			
 252:BLEclient.c   **** 			addedDevices++;
 840              		.loc 1 252 0
 841 0280 064B     		ldr	r3, .L42
 842 0282 1B78     		ldrb	r3, [r3]
 843 0284 0133     		adds	r3, r3, #1
 844 0286 DAB2     		uxtb	r2, r3
 845 0288 044B     		ldr	r3, .L42
 846 028a 1A70     		strb	r2, [r3]
 847              	.L33:
 253:BLEclient.c   **** 		}
 254:BLEclient.c   **** 		
 255:BLEclient.c   **** 		newDevice = TRUE;
 848              		.loc 1 255 0
 849 028c 0D23     		movs	r3, #13
 850 028e FB18     		adds	r3, r7, r3
 851 0290 0122     		movs	r2, #1
 852 0292 1A70     		strb	r2, [r3]
 853              	.L41:
 256:BLEclient.c   **** 	}
 257:BLEclient.c   **** }
 854              		.loc 1 257 0
 855 0294 C046     		nop
 856 0296 BD46     		mov	sp, r7
 857 0298 04B0     		add	sp, sp, #16
 858              		@ sp needed
 859 029a 80BD     		pop	{r7, pc}
 860              	.L43:
 861              		.align	2
 862              	.L42:
 863 029c 00000000 		.word	addedDevices
 864 02a0 00000000 		.word	address_store
 865 02a4 00000000 		.word	list_of_devices
 866 02a8 00000000 		.word	peripheralAddress
 867 02ac 00000000 		.word	connectPeriphDevice
 868 02b0 10000000 		.word	.LC17
 869 02b4 00000000 		.word	deviceName
 870 02b8 00000000 		.word	peripheralFound
 871              		.cfi_endproc
 872              	.LFE39:
 873              		.size	HandleScanDevices, .-HandleScanDevices
 874              		.section	.text.LoadPeripheralDeviceData,"ax",%progbits
 875              		.align	2
 876              		.global	LoadPeripheralDeviceData
 877              		.code	16
ARM GAS  C:\Users\cnpan\AppData\Local\Temp\cc94LODs.s 			page 22


 878              		.thumb_func
 879              		.type	LoadPeripheralDeviceData, %function
 880              	LoadPeripheralDeviceData:
 881              	.LFB40:
 258:BLEclient.c   **** 
 259:BLEclient.c   **** void LoadPeripheralDeviceData(void)
 260:BLEclient.c   **** {
 882              		.loc 1 260 0
 883              		.cfi_startproc
 884              		@ args = 0, pretend = 0, frame = 0
 885              		@ frame_needed = 1, uses_anonymous_args = 0
 886 0000 80B5     		push	{r7, lr}
 887              		.cfi_def_cfa_offset 8
 888              		.cfi_offset 7, -8
 889              		.cfi_offset 14, -4
 890 0002 00AF     		add	r7, sp, #0
 891              		.cfi_def_cfa_register 7
 261:BLEclient.c   **** 		peripheralAddress[5] = 0x00;
 892              		.loc 1 261 0
 893 0004 0A4B     		ldr	r3, .L45
 894 0006 0022     		movs	r2, #0
 895 0008 5A71     		strb	r2, [r3, #5]
 262:BLEclient.c   **** 		peripheralAddress[4] = 0xA0;
 896              		.loc 1 262 0
 897 000a 094B     		ldr	r3, .L45
 898 000c A022     		movs	r2, #160
 899 000e 1A71     		strb	r2, [r3, #4]
 263:BLEclient.c   **** 		peripheralAddress[3] = 0x50;
 900              		.loc 1 263 0
 901 0010 074B     		ldr	r3, .L45
 902 0012 5022     		movs	r2, #80
 903 0014 DA70     		strb	r2, [r3, #3]
 264:BLEclient.c   **** 		peripheralAddress[2] = 0x65;
 904              		.loc 1 264 0
 905 0016 064B     		ldr	r3, .L45
 906 0018 6522     		movs	r2, #101
 907 001a 9A70     		strb	r2, [r3, #2]
 265:BLEclient.c   **** 		peripheralAddress[1] = 0x43;
 908              		.loc 1 265 0
 909 001c 044B     		ldr	r3, .L45
 910 001e 4322     		movs	r2, #67
 911 0020 5A70     		strb	r2, [r3, #1]
 266:BLEclient.c   **** 		peripheralAddress[0] = 0x25;
 912              		.loc 1 266 0
 913 0022 034B     		ldr	r3, .L45
 914 0024 2522     		movs	r2, #37
 915 0026 1A70     		strb	r2, [r3]
 267:BLEclient.c   **** }
 916              		.loc 1 267 0
 917 0028 C046     		nop
 918 002a BD46     		mov	sp, r7
 919              		@ sp needed
 920 002c 80BD     		pop	{r7, pc}
 921              	.L46:
 922 002e C046     		.align	2
 923              	.L45:
 924 0030 00000000 		.word	peripheralAddress
ARM GAS  C:\Users\cnpan\AppData\Local\Temp\cc94LODs.s 			page 23


 925              		.cfi_endproc
 926              	.LFE40:
 927              		.size	LoadPeripheralDeviceData, .-LoadPeripheralDeviceData
 928              		.text
 929              	.Letext0:
 930              		.file 2 "Generated_Source\\PSoC4/cytypes.h"
 931              		.file 3 "Generated_Source\\PSoC4/BLE_Stack.h"
 932              		.file 4 "Generated_Source\\PSoC4/BLE_StackGap.h"
 933              		.file 5 "Generated_Source\\PSoC4/BLE_StackGatt.h"
 934              		.file 6 "Generated_Source\\PSoC4/BLE_StackGattServer.h"
 935              		.file 7 "Generated_Source\\PSoC4/BLE_StackGattClient.h"
 936              		.file 8 "Generated_Source\\PSoC4/BLE_eventHandler.h"